
myapp：     文件格式 elf64-x86-64


Disassembly of section .init:

0000000000002000 <_init>:
    2000:	f3 0f 1e fa          	endbr64 
    2004:	48 83 ec 08          	sub    rsp,0x8
    2008:	48 8b 05 d9 7f 00 00 	mov    rax,QWORD PTR [rip+0x7fd9]        # 9fe8 <__gmon_start__>
    200f:	48 85 c0             	test   rax,rax
    2012:	74 02                	je     2016 <_init+0x16>
    2014:	ff d0                	call   rax
    2016:	48 83 c4 08          	add    rsp,0x8
    201a:	c3                   	ret    

Disassembly of section .plt:

0000000000002020 <.plt>:
    2020:	ff 35 22 7f 00 00    	push   QWORD PTR [rip+0x7f22]        # 9f48 <_GLOBAL_OFFSET_TABLE_+0x8>
    2026:	f2 ff 25 23 7f 00 00 	bnd jmp QWORD PTR [rip+0x7f23]        # 9f50 <_GLOBAL_OFFSET_TABLE_+0x10>
    202d:	0f 1f 00             	nop    DWORD PTR [rax]
    2030:	f3 0f 1e fa          	endbr64 
    2034:	68 00 00 00 00       	push   0x0
    2039:	f2 e9 e1 ff ff ff    	bnd jmp 2020 <.plt>
    203f:	90                   	nop
    2040:	f3 0f 1e fa          	endbr64 
    2044:	68 01 00 00 00       	push   0x1
    2049:	f2 e9 d1 ff ff ff    	bnd jmp 2020 <.plt>
    204f:	90                   	nop
    2050:	f3 0f 1e fa          	endbr64 
    2054:	68 02 00 00 00       	push   0x2
    2059:	f2 e9 c1 ff ff ff    	bnd jmp 2020 <.plt>
    205f:	90                   	nop
    2060:	f3 0f 1e fa          	endbr64 
    2064:	68 03 00 00 00       	push   0x3
    2069:	f2 e9 b1 ff ff ff    	bnd jmp 2020 <.plt>
    206f:	90                   	nop
    2070:	f3 0f 1e fa          	endbr64 
    2074:	68 04 00 00 00       	push   0x4
    2079:	f2 e9 a1 ff ff ff    	bnd jmp 2020 <.plt>
    207f:	90                   	nop
    2080:	f3 0f 1e fa          	endbr64 
    2084:	68 05 00 00 00       	push   0x5
    2089:	f2 e9 91 ff ff ff    	bnd jmp 2020 <.plt>
    208f:	90                   	nop
    2090:	f3 0f 1e fa          	endbr64 
    2094:	68 06 00 00 00       	push   0x6
    2099:	f2 e9 81 ff ff ff    	bnd jmp 2020 <.plt>
    209f:	90                   	nop
    20a0:	f3 0f 1e fa          	endbr64 
    20a4:	68 07 00 00 00       	push   0x7
    20a9:	f2 e9 71 ff ff ff    	bnd jmp 2020 <.plt>
    20af:	90                   	nop
    20b0:	f3 0f 1e fa          	endbr64 
    20b4:	68 08 00 00 00       	push   0x8
    20b9:	f2 e9 61 ff ff ff    	bnd jmp 2020 <.plt>
    20bf:	90                   	nop
    20c0:	f3 0f 1e fa          	endbr64 
    20c4:	68 09 00 00 00       	push   0x9
    20c9:	f2 e9 51 ff ff ff    	bnd jmp 2020 <.plt>
    20cf:	90                   	nop
    20d0:	f3 0f 1e fa          	endbr64 
    20d4:	68 0a 00 00 00       	push   0xa
    20d9:	f2 e9 41 ff ff ff    	bnd jmp 2020 <.plt>
    20df:	90                   	nop
    20e0:	f3 0f 1e fa          	endbr64 
    20e4:	68 0b 00 00 00       	push   0xb
    20e9:	f2 e9 31 ff ff ff    	bnd jmp 2020 <.plt>
    20ef:	90                   	nop
    20f0:	f3 0f 1e fa          	endbr64 
    20f4:	68 0c 00 00 00       	push   0xc
    20f9:	f2 e9 21 ff ff ff    	bnd jmp 2020 <.plt>
    20ff:	90                   	nop
    2100:	f3 0f 1e fa          	endbr64 
    2104:	68 0d 00 00 00       	push   0xd
    2109:	f2 e9 11 ff ff ff    	bnd jmp 2020 <.plt>
    210f:	90                   	nop
    2110:	f3 0f 1e fa          	endbr64 
    2114:	68 0e 00 00 00       	push   0xe
    2119:	f2 e9 01 ff ff ff    	bnd jmp 2020 <.plt>
    211f:	90                   	nop
    2120:	f3 0f 1e fa          	endbr64 
    2124:	68 0f 00 00 00       	push   0xf
    2129:	f2 e9 f1 fe ff ff    	bnd jmp 2020 <.plt>
    212f:	90                   	nop

Disassembly of section .plt.got:

0000000000002130 <__cxa_finalize@plt>:
    2130:	f3 0f 1e fa          	endbr64 
    2134:	f2 ff 25 bd 7e 00 00 	bnd jmp QWORD PTR [rip+0x7ebd]        # 9ff8 <__cxa_finalize@GLIBC_2.2.5>
    213b:	0f 1f 44 00 00       	nop    DWORD PTR [rax+rax*1+0x0]

Disassembly of section .plt.sec:

0000000000002140 <free@plt>:
    2140:	f3 0f 1e fa          	endbr64 
    2144:	f2 ff 25 0d 7e 00 00 	bnd jmp QWORD PTR [rip+0x7e0d]        # 9f58 <free@GLIBC_2.2.5>
    214b:	0f 1f 44 00 00       	nop    DWORD PTR [rax+rax*1+0x0]

0000000000002150 <putchar@plt>:
    2150:	f3 0f 1e fa          	endbr64 
    2154:	f2 ff 25 05 7e 00 00 	bnd jmp QWORD PTR [rip+0x7e05]        # 9f60 <putchar@GLIBC_2.2.5>
    215b:	0f 1f 44 00 00       	nop    DWORD PTR [rax+rax*1+0x0]

0000000000002160 <puts@plt>:
    2160:	f3 0f 1e fa          	endbr64 
    2164:	f2 ff 25 fd 7d 00 00 	bnd jmp QWORD PTR [rip+0x7dfd]        # 9f68 <puts@GLIBC_2.2.5>
    216b:	0f 1f 44 00 00       	nop    DWORD PTR [rax+rax*1+0x0]

0000000000002170 <fread@plt>:
    2170:	f3 0f 1e fa          	endbr64 
    2174:	f2 ff 25 f5 7d 00 00 	bnd jmp QWORD PTR [rip+0x7df5]        # 9f70 <fread@GLIBC_2.2.5>
    217b:	0f 1f 44 00 00       	nop    DWORD PTR [rax+rax*1+0x0]

0000000000002180 <fclose@plt>:
    2180:	f3 0f 1e fa          	endbr64 
    2184:	f2 ff 25 ed 7d 00 00 	bnd jmp QWORD PTR [rip+0x7ded]        # 9f78 <fclose@GLIBC_2.2.5>
    218b:	0f 1f 44 00 00       	nop    DWORD PTR [rax+rax*1+0x0]

0000000000002190 <__stack_chk_fail@plt>:
    2190:	f3 0f 1e fa          	endbr64 
    2194:	f2 ff 25 e5 7d 00 00 	bnd jmp QWORD PTR [rip+0x7de5]        # 9f80 <__stack_chk_fail@GLIBC_2.4>
    219b:	0f 1f 44 00 00       	nop    DWORD PTR [rax+rax*1+0x0]

00000000000021a0 <printf@plt>:
    21a0:	f3 0f 1e fa          	endbr64 
    21a4:	f2 ff 25 dd 7d 00 00 	bnd jmp QWORD PTR [rip+0x7ddd]        # 9f88 <printf@GLIBC_2.2.5>
    21ab:	0f 1f 44 00 00       	nop    DWORD PTR [rax+rax*1+0x0]

00000000000021b0 <__assert_fail@plt>:
    21b0:	f3 0f 1e fa          	endbr64 
    21b4:	f2 ff 25 d5 7d 00 00 	bnd jmp QWORD PTR [rip+0x7dd5]        # 9f90 <__assert_fail@GLIBC_2.2.5>
    21bb:	0f 1f 44 00 00       	nop    DWORD PTR [rax+rax*1+0x0]

00000000000021c0 <calloc@plt>:
    21c0:	f3 0f 1e fa          	endbr64 
    21c4:	f2 ff 25 cd 7d 00 00 	bnd jmp QWORD PTR [rip+0x7dcd]        # 9f98 <calloc@GLIBC_2.2.5>
    21cb:	0f 1f 44 00 00       	nop    DWORD PTR [rax+rax*1+0x0]

00000000000021d0 <strcmp@plt>:
    21d0:	f3 0f 1e fa          	endbr64 
    21d4:	f2 ff 25 c5 7d 00 00 	bnd jmp QWORD PTR [rip+0x7dc5]        # 9fa0 <strcmp@GLIBC_2.2.5>
    21db:	0f 1f 44 00 00       	nop    DWORD PTR [rax+rax*1+0x0]

00000000000021e0 <__xstat@plt>:
    21e0:	f3 0f 1e fa          	endbr64 
    21e4:	f2 ff 25 bd 7d 00 00 	bnd jmp QWORD PTR [rip+0x7dbd]        # 9fa8 <__xstat@GLIBC_2.2.5>
    21eb:	0f 1f 44 00 00       	nop    DWORD PTR [rax+rax*1+0x0]

00000000000021f0 <malloc@plt>:
    21f0:	f3 0f 1e fa          	endbr64 
    21f4:	f2 ff 25 b5 7d 00 00 	bnd jmp QWORD PTR [rip+0x7db5]        # 9fb0 <malloc@GLIBC_2.2.5>
    21fb:	0f 1f 44 00 00       	nop    DWORD PTR [rax+rax*1+0x0]

0000000000002200 <fflush@plt>:
    2200:	f3 0f 1e fa          	endbr64 
    2204:	f2 ff 25 ad 7d 00 00 	bnd jmp QWORD PTR [rip+0x7dad]        # 9fb8 <fflush@GLIBC_2.2.5>
    220b:	0f 1f 44 00 00       	nop    DWORD PTR [rax+rax*1+0x0]

0000000000002210 <vprintf@plt>:
    2210:	f3 0f 1e fa          	endbr64 
    2214:	f2 ff 25 a5 7d 00 00 	bnd jmp QWORD PTR [rip+0x7da5]        # 9fc0 <vprintf@GLIBC_2.2.5>
    221b:	0f 1f 44 00 00       	nop    DWORD PTR [rax+rax*1+0x0]

0000000000002220 <fopen@plt>:
    2220:	f3 0f 1e fa          	endbr64 
    2224:	f2 ff 25 9d 7d 00 00 	bnd jmp QWORD PTR [rip+0x7d9d]        # 9fc8 <fopen@GLIBC_2.2.5>
    222b:	0f 1f 44 00 00       	nop    DWORD PTR [rax+rax*1+0x0]

0000000000002230 <__ctype_b_loc@plt>:
    2230:	f3 0f 1e fa          	endbr64 
    2234:	f2 ff 25 95 7d 00 00 	bnd jmp QWORD PTR [rip+0x7d95]        # 9fd0 <__ctype_b_loc@GLIBC_2.3>
    223b:	0f 1f 44 00 00       	nop    DWORD PTR [rax+rax*1+0x0]

Disassembly of section .text:

0000000000002240 <_start>:
    2240:	f3 0f 1e fa          	endbr64 
    2244:	31 ed                	xor    ebp,ebp
    2246:	49 89 d1             	mov    r9,rdx
    2249:	5e                   	pop    rsi
    224a:	48 89 e2             	mov    rdx,rsp
    224d:	48 83 e4 f0          	and    rsp,0xfffffffffffffff0
    2251:	50                   	push   rax
    2252:	54                   	push   rsp
    2253:	4c 8d 05 e6 32 00 00 	lea    r8,[rip+0x32e6]        # 5540 <__libc_csu_fini>
    225a:	48 8d 0d 6f 32 00 00 	lea    rcx,[rip+0x326f]        # 54d0 <__libc_csu_init>
    2261:	48 8d 3d ff 30 00 00 	lea    rdi,[rip+0x30ff]        # 5367 <main>
    2268:	ff 15 72 7d 00 00    	call   QWORD PTR [rip+0x7d72]        # 9fe0 <__libc_start_main@GLIBC_2.2.5>
    226e:	f4                   	hlt    
    226f:	90                   	nop

0000000000002270 <deregister_tm_clones>:
    2270:	48 8d 3d 09 80 00 00 	lea    rdi,[rip+0x8009]        # a280 <stdout@@GLIBC_2.2.5>
    2277:	48 8d 05 02 80 00 00 	lea    rax,[rip+0x8002]        # a280 <stdout@@GLIBC_2.2.5>
    227e:	48 39 f8             	cmp    rax,rdi
    2281:	74 15                	je     2298 <deregister_tm_clones+0x28>
    2283:	48 8b 05 4e 7d 00 00 	mov    rax,QWORD PTR [rip+0x7d4e]        # 9fd8 <_ITM_deregisterTMCloneTable>
    228a:	48 85 c0             	test   rax,rax
    228d:	74 09                	je     2298 <deregister_tm_clones+0x28>
    228f:	ff e0                	jmp    rax
    2291:	0f 1f 80 00 00 00 00 	nop    DWORD PTR [rax+0x0]
    2298:	c3                   	ret    
    2299:	0f 1f 80 00 00 00 00 	nop    DWORD PTR [rax+0x0]

00000000000022a0 <register_tm_clones>:
    22a0:	48 8d 3d d9 7f 00 00 	lea    rdi,[rip+0x7fd9]        # a280 <stdout@@GLIBC_2.2.5>
    22a7:	48 8d 35 d2 7f 00 00 	lea    rsi,[rip+0x7fd2]        # a280 <stdout@@GLIBC_2.2.5>
    22ae:	48 29 fe             	sub    rsi,rdi
    22b1:	48 89 f0             	mov    rax,rsi
    22b4:	48 c1 ee 3f          	shr    rsi,0x3f
    22b8:	48 c1 f8 03          	sar    rax,0x3
    22bc:	48 01 c6             	add    rsi,rax
    22bf:	48 d1 fe             	sar    rsi,1
    22c2:	74 14                	je     22d8 <register_tm_clones+0x38>
    22c4:	48 8b 05 25 7d 00 00 	mov    rax,QWORD PTR [rip+0x7d25]        # 9ff0 <_ITM_registerTMCloneTable>
    22cb:	48 85 c0             	test   rax,rax
    22ce:	74 08                	je     22d8 <register_tm_clones+0x38>
    22d0:	ff e0                	jmp    rax
    22d2:	66 0f 1f 44 00 00    	nop    WORD PTR [rax+rax*1+0x0]
    22d8:	c3                   	ret    
    22d9:	0f 1f 80 00 00 00 00 	nop    DWORD PTR [rax+0x0]

00000000000022e0 <__do_global_dtors_aux>:
    22e0:	f3 0f 1e fa          	endbr64 
    22e4:	80 3d 9d 7f 00 00 00 	cmp    BYTE PTR [rip+0x7f9d],0x0        # a288 <completed.8061>
    22eb:	75 2b                	jne    2318 <__do_global_dtors_aux+0x38>
    22ed:	55                   	push   rbp
    22ee:	48 83 3d 02 7d 00 00 	cmp    QWORD PTR [rip+0x7d02],0x0        # 9ff8 <__cxa_finalize@GLIBC_2.2.5>
    22f5:	00 
    22f6:	48 89 e5             	mov    rbp,rsp
    22f9:	74 0c                	je     2307 <__do_global_dtors_aux+0x27>
    22fb:	48 8b 3d 06 7d 00 00 	mov    rdi,QWORD PTR [rip+0x7d06]        # a008 <__dso_handle>
    2302:	e8 29 fe ff ff       	call   2130 <__cxa_finalize@plt>
    2307:	e8 64 ff ff ff       	call   2270 <deregister_tm_clones>
    230c:	c6 05 75 7f 00 00 01 	mov    BYTE PTR [rip+0x7f75],0x1        # a288 <completed.8061>
    2313:	5d                   	pop    rbp
    2314:	c3                   	ret    
    2315:	0f 1f 00             	nop    DWORD PTR [rax]
    2318:	c3                   	ret    
    2319:	0f 1f 80 00 00 00 00 	nop    DWORD PTR [rax+0x0]

0000000000002320 <frame_dummy>:
    2320:	f3 0f 1e fa          	endbr64 
    2324:	e9 77 ff ff ff       	jmp    22a0 <register_tm_clones>

0000000000002329 <xlog_init>:
    2329:	f3 0f 1e fa          	endbr64 
    232d:	55                   	push   rbp
    232e:	48 89 e5             	mov    rbp,rsp
    2331:	90                   	nop
    2332:	5d                   	pop    rbp
    2333:	c3                   	ret    

0000000000002334 <xlog_uninit>:
    2334:	f3 0f 1e fa          	endbr64 
    2338:	55                   	push   rbp
    2339:	48 89 e5             	mov    rbp,rsp
    233c:	90                   	nop
    233d:	5d                   	pop    rbp
    233e:	c3                   	ret    

000000000000233f <xlog_mutex_lock>:
    233f:	f3 0f 1e fa          	endbr64 
    2343:	55                   	push   rbp
    2344:	48 89 e5             	mov    rbp,rsp
    2347:	90                   	nop
    2348:	5d                   	pop    rbp
    2349:	c3                   	ret    

000000000000234a <xlog_mutex_unlock>:
    234a:	f3 0f 1e fa          	endbr64 
    234e:	55                   	push   rbp
    234f:	48 89 e5             	mov    rbp,rsp
    2352:	90                   	nop
    2353:	5d                   	pop    rbp
    2354:	c3                   	ret    

0000000000002355 <xlog_core>:
    2355:	f3 0f 1e fa          	endbr64 
    2359:	55                   	push   rbp
    235a:	48 89 e5             	mov    rbp,rsp
    235d:	48 83 ec 30          	sub    rsp,0x30
    2361:	89 7d ec             	mov    DWORD PTR [rbp-0x14],edi
    2364:	48 89 75 e0          	mov    QWORD PTR [rbp-0x20],rsi
    2368:	48 89 55 d8          	mov    QWORD PTR [rbp-0x28],rdx
    236c:	48 8b 55 d8          	mov    rdx,QWORD PTR [rbp-0x28]
    2370:	48 8b 45 e0          	mov    rax,QWORD PTR [rbp-0x20]
    2374:	48 89 d6             	mov    rsi,rdx
    2377:	48 89 c7             	mov    rdi,rax
    237a:	e8 91 fe ff ff       	call   2210 <vprintf@plt>
    237f:	89 45 fc             	mov    DWORD PTR [rbp-0x4],eax
    2382:	48 8b 05 f7 7e 00 00 	mov    rax,QWORD PTR [rip+0x7ef7]        # a280 <stdout@@GLIBC_2.2.5>
    2389:	48 89 c7             	mov    rdi,rax
    238c:	e8 6f fe ff ff       	call   2200 <fflush@plt>
    2391:	8b 45 fc             	mov    eax,DWORD PTR [rbp-0x4]
    2394:	c9                   	leave  
    2395:	c3                   	ret    

0000000000002396 <xlog_info_x>:
    2396:	f3 0f 1e fa          	endbr64 
    239a:	55                   	push   rbp
    239b:	48 89 e5             	mov    rbp,rsp
    239e:	48 81 ec f0 00 00 00 	sub    rsp,0xf0
    23a5:	48 89 bd 18 ff ff ff 	mov    QWORD PTR [rbp-0xe8],rdi
    23ac:	48 89 b5 58 ff ff ff 	mov    QWORD PTR [rbp-0xa8],rsi
    23b3:	48 89 95 60 ff ff ff 	mov    QWORD PTR [rbp-0xa0],rdx
    23ba:	48 89 8d 68 ff ff ff 	mov    QWORD PTR [rbp-0x98],rcx
    23c1:	4c 89 85 70 ff ff ff 	mov    QWORD PTR [rbp-0x90],r8
    23c8:	4c 89 8d 78 ff ff ff 	mov    QWORD PTR [rbp-0x88],r9
    23cf:	84 c0                	test   al,al
    23d1:	74 20                	je     23f3 <xlog_info_x+0x5d>
    23d3:	0f 29 45 80          	movaps XMMWORD PTR [rbp-0x80],xmm0
    23d7:	0f 29 4d 90          	movaps XMMWORD PTR [rbp-0x70],xmm1
    23db:	0f 29 55 a0          	movaps XMMWORD PTR [rbp-0x60],xmm2
    23df:	0f 29 5d b0          	movaps XMMWORD PTR [rbp-0x50],xmm3
    23e3:	0f 29 65 c0          	movaps XMMWORD PTR [rbp-0x40],xmm4
    23e7:	0f 29 6d d0          	movaps XMMWORD PTR [rbp-0x30],xmm5
    23eb:	0f 29 75 e0          	movaps XMMWORD PTR [rbp-0x20],xmm6
    23ef:	0f 29 7d f0          	movaps XMMWORD PTR [rbp-0x10],xmm7
    23f3:	64 48 8b 04 25 28 00 	mov    rax,QWORD PTR fs:0x28
    23fa:	00 00 
    23fc:	48 89 85 48 ff ff ff 	mov    QWORD PTR [rbp-0xb8],rax
    2403:	31 c0                	xor    eax,eax
    2405:	c7 85 28 ff ff ff 00 	mov    DWORD PTR [rbp-0xd8],0x0
    240c:	00 00 00 
    240f:	c7 85 2c ff ff ff 01 	mov    DWORD PTR [rbp-0xd4],0x1
    2416:	00 00 00 
    2419:	83 bd 2c ff ff ff 00 	cmp    DWORD PTR [rbp-0xd4],0x0
    2420:	74 6f                	je     2491 <xlog_info_x+0xfb>
    2422:	48 c7 85 30 ff ff ff 	mov    QWORD PTR [rbp-0xd0],0x0
    2429:	00 00 00 00 
    242d:	48 c7 85 38 ff ff ff 	mov    QWORD PTR [rbp-0xc8],0x0
    2434:	00 00 00 00 
    2438:	48 c7 85 40 ff ff ff 	mov    QWORD PTR [rbp-0xc0],0x0
    243f:	00 00 00 00 
    2443:	c7 85 30 ff ff ff 08 	mov    DWORD PTR [rbp-0xd0],0x8
    244a:	00 00 00 
    244d:	c7 85 34 ff ff ff 30 	mov    DWORD PTR [rbp-0xcc],0x30
    2454:	00 00 00 
    2457:	48 8d 45 10          	lea    rax,[rbp+0x10]
    245b:	48 89 85 38 ff ff ff 	mov    QWORD PTR [rbp-0xc8],rax
    2462:	48 8d 85 50 ff ff ff 	lea    rax,[rbp-0xb0]
    2469:	48 89 85 40 ff ff ff 	mov    QWORD PTR [rbp-0xc0],rax
    2470:	48 8d 95 30 ff ff ff 	lea    rdx,[rbp-0xd0]
    2477:	48 8b 85 18 ff ff ff 	mov    rax,QWORD PTR [rbp-0xe8]
    247e:	48 89 c6             	mov    rsi,rax
    2481:	bf 01 00 00 00       	mov    edi,0x1
    2486:	e8 ca fe ff ff       	call   2355 <xlog_core>
    248b:	89 85 28 ff ff ff    	mov    DWORD PTR [rbp-0xd8],eax
    2491:	8b 85 28 ff ff ff    	mov    eax,DWORD PTR [rbp-0xd8]
    2497:	48 8b 8d 48 ff ff ff 	mov    rcx,QWORD PTR [rbp-0xb8]
    249e:	64 48 33 0c 25 28 00 	xor    rcx,QWORD PTR fs:0x28
    24a5:	00 00 
    24a7:	74 05                	je     24ae <xlog_info_x+0x118>
    24a9:	e8 e2 fc ff ff       	call   2190 <__stack_chk_fail@plt>
    24ae:	c9                   	leave  
    24af:	c3                   	ret    

00000000000024b0 <xlog_hexdump>:
    24b0:	f3 0f 1e fa          	endbr64 
    24b4:	55                   	push   rbp
    24b5:	48 89 e5             	mov    rbp,rsp
    24b8:	48 83 ec 30          	sub    rsp,0x30
    24bc:	48 89 7d d8          	mov    QWORD PTR [rbp-0x28],rdi
    24c0:	48 89 75 d0          	mov    QWORD PTR [rbp-0x30],rsi
    24c4:	c7 45 f8 00 00 00 00 	mov    DWORD PTR [rbp-0x8],0x0
    24cb:	b8 00 00 00 00       	mov    eax,0x0
    24d0:	e8 6a fe ff ff       	call   233f <xlog_mutex_lock>
    24d5:	48 83 7d d8 00       	cmp    QWORD PTR [rbp-0x28],0x0
    24da:	74 07                	je     24e3 <xlog_hexdump+0x33>
    24dc:	48 83 7d d0 00       	cmp    QWORD PTR [rbp-0x30],0x0
    24e1:	75 14                	jne    24f7 <xlog_hexdump+0x47>
    24e3:	b8 00 00 00 00       	mov    eax,0x0
    24e8:	e8 5d fe ff ff       	call   234a <xlog_mutex_unlock>
    24ed:	b8 00 00 00 00       	mov    eax,0x0
    24f2:	e9 72 03 00 00       	jmp    2869 <xlog_hexdump+0x3b9>
    24f7:	48 8d 3d 12 3b 00 00 	lea    rdi,[rip+0x3b12]        # 6010 <_IO_stdin_used+0x10>
    24fe:	b8 00 00 00 00       	mov    eax,0x0
    2503:	e8 8e fe ff ff       	call   2396 <xlog_info_x>
    2508:	48 8b 45 d8          	mov    rax,QWORD PTR [rbp-0x28]
    250c:	48 89 c6             	mov    rsi,rax
    250f:	48 8d 3d fc 3a 00 00 	lea    rdi,[rip+0x3afc]        # 6012 <_IO_stdin_used+0x12>
    2516:	b8 00 00 00 00       	mov    eax,0x0
    251b:	e8 76 fe ff ff       	call   2396 <xlog_info_x>
    2520:	48 8d 3d f1 3a 00 00 	lea    rdi,[rip+0x3af1]        # 6018 <_IO_stdin_used+0x18>
    2527:	b8 00 00 00 00       	mov    eax,0x0
    252c:	e8 65 fe ff ff       	call   2396 <xlog_info_x>
    2531:	48 8d 3d 28 3b 00 00 	lea    rdi,[rip+0x3b28]        # 6060 <_IO_stdin_used+0x60>
    2538:	b8 00 00 00 00       	mov    eax,0x0
    253d:	e8 54 fe ff ff       	call   2396 <xlog_info_x>
    2542:	48 8b 45 d0          	mov    rax,QWORD PTR [rbp-0x30]
    2546:	83 e0 0f             	and    eax,0xf
    2549:	48 85 c0             	test   rax,rax
    254c:	74 0d                	je     255b <xlog_hexdump+0xab>
    254e:	48 8b 45 d0          	mov    rax,QWORD PTR [rbp-0x30]
    2552:	48 c1 e8 04          	shr    rax,0x4
    2556:	83 c0 01             	add    eax,0x1
    2559:	eb 08                	jmp    2563 <xlog_hexdump+0xb3>
    255b:	48 8b 45 d0          	mov    rax,QWORD PTR [rbp-0x30]
    255f:	48 c1 e8 04          	shr    rax,0x4
    2563:	89 45 fc             	mov    DWORD PTR [rbp-0x4],eax
    2566:	c7 45 e8 00 00 00 00 	mov    DWORD PTR [rbp-0x18],0x0
    256d:	e9 bc 02 00 00       	jmp    282e <xlog_hexdump+0x37e>
    2572:	8b 45 e8             	mov    eax,DWORD PTR [rbp-0x18]
    2575:	c1 e0 04             	shl    eax,0x4
    2578:	89 c6                	mov    esi,eax
    257a:	48 8d 3d 34 3b 00 00 	lea    rdi,[rip+0x3b34]        # 60b5 <_IO_stdin_used+0xb5>
    2581:	b8 00 00 00 00       	mov    eax,0x0
    2586:	e8 0b fe ff ff       	call   2396 <xlog_info_x>
    258b:	48 8d 3d 31 3b 00 00 	lea    rdi,[rip+0x3b31]        # 60c3 <_IO_stdin_used+0xc3>
    2592:	b8 00 00 00 00       	mov    eax,0x0
    2597:	e8 fa fd ff ff       	call   2396 <xlog_info_x>
    259c:	c7 45 ec 00 00 00 00 	mov    DWORD PTR [rbp-0x14],0x0
    25a3:	eb 5a                	jmp    25ff <xlog_hexdump+0x14f>
    25a5:	8b 45 e8             	mov    eax,DWORD PTR [rbp-0x18]
    25a8:	c1 e0 04             	shl    eax,0x4
    25ab:	89 c2                	mov    edx,eax
    25ad:	8b 45 ec             	mov    eax,DWORD PTR [rbp-0x14]
    25b0:	01 d0                	add    eax,edx
    25b2:	89 c0                	mov    eax,eax
    25b4:	48 39 45 d0          	cmp    QWORD PTR [rbp-0x30],rax
    25b8:	76 30                	jbe    25ea <xlog_hexdump+0x13a>
    25ba:	8b 45 e8             	mov    eax,DWORD PTR [rbp-0x18]
    25bd:	c1 e0 04             	shl    eax,0x4
    25c0:	89 c2                	mov    edx,eax
    25c2:	8b 45 ec             	mov    eax,DWORD PTR [rbp-0x14]
    25c5:	48 01 c2             	add    rdx,rax
    25c8:	48 8b 45 d8          	mov    rax,QWORD PTR [rbp-0x28]
    25cc:	48 01 d0             	add    rax,rdx
    25cf:	0f b6 00             	movzx  eax,BYTE PTR [rax]
    25d2:	0f b6 c0             	movzx  eax,al
    25d5:	89 c6                	mov    esi,eax
    25d7:	48 8d 3d eb 3a 00 00 	lea    rdi,[rip+0x3aeb]        # 60c9 <_IO_stdin_used+0xc9>
    25de:	b8 00 00 00 00       	mov    eax,0x0
    25e3:	e8 ae fd ff ff       	call   2396 <xlog_info_x>
    25e8:	eb 11                	jmp    25fb <xlog_hexdump+0x14b>
    25ea:	48 8d 3d de 3a 00 00 	lea    rdi,[rip+0x3ade]        # 60cf <_IO_stdin_used+0xcf>
    25f1:	b8 00 00 00 00       	mov    eax,0x0
    25f6:	e8 9b fd ff ff       	call   2396 <xlog_info_x>
    25fb:	83 45 ec 01          	add    DWORD PTR [rbp-0x14],0x1
    25ff:	83 7d ec 07          	cmp    DWORD PTR [rbp-0x14],0x7
    2603:	76 a0                	jbe    25a5 <xlog_hexdump+0xf5>
    2605:	48 8d 3d c7 3a 00 00 	lea    rdi,[rip+0x3ac7]        # 60d3 <_IO_stdin_used+0xd3>
    260c:	b8 00 00 00 00       	mov    eax,0x0
    2611:	e8 80 fd ff ff       	call   2396 <xlog_info_x>
    2616:	c7 45 f0 08 00 00 00 	mov    DWORD PTR [rbp-0x10],0x8
    261d:	e9 a9 00 00 00       	jmp    26cb <xlog_hexdump+0x21b>
    2622:	8b 45 e8             	mov    eax,DWORD PTR [rbp-0x18]
    2625:	c1 e0 04             	shl    eax,0x4
    2628:	89 c2                	mov    edx,eax
    262a:	8b 45 f0             	mov    eax,DWORD PTR [rbp-0x10]
    262d:	01 d0                	add    eax,edx
    262f:	89 c0                	mov    eax,eax
    2631:	48 39 45 d0          	cmp    QWORD PTR [rbp-0x30],rax
    2635:	76 66                	jbe    269d <xlog_hexdump+0x1ed>
    2637:	83 7d f0 0e          	cmp    DWORD PTR [rbp-0x10],0xe
    263b:	77 30                	ja     266d <xlog_hexdump+0x1bd>
    263d:	8b 45 e8             	mov    eax,DWORD PTR [rbp-0x18]
    2640:	c1 e0 04             	shl    eax,0x4
    2643:	89 c2                	mov    edx,eax
    2645:	8b 45 f0             	mov    eax,DWORD PTR [rbp-0x10]
    2648:	48 01 c2             	add    rdx,rax
    264b:	48 8b 45 d8          	mov    rax,QWORD PTR [rbp-0x28]
    264f:	48 01 d0             	add    rax,rdx
    2652:	0f b6 00             	movzx  eax,BYTE PTR [rax]
    2655:	0f b6 c0             	movzx  eax,al
    2658:	89 c6                	mov    esi,eax
    265a:	48 8d 3d 68 3a 00 00 	lea    rdi,[rip+0x3a68]        # 60c9 <_IO_stdin_used+0xc9>
    2661:	b8 00 00 00 00       	mov    eax,0x0
    2666:	e8 2b fd ff ff       	call   2396 <xlog_info_x>
    266b:	eb 5a                	jmp    26c7 <xlog_hexdump+0x217>
    266d:	8b 45 e8             	mov    eax,DWORD PTR [rbp-0x18]
    2670:	c1 e0 04             	shl    eax,0x4
    2673:	89 c2                	mov    edx,eax
    2675:	8b 45 f0             	mov    eax,DWORD PTR [rbp-0x10]
    2678:	48 01 c2             	add    rdx,rax
    267b:	48 8b 45 d8          	mov    rax,QWORD PTR [rbp-0x28]
    267f:	48 01 d0             	add    rax,rdx
    2682:	0f b6 00             	movzx  eax,BYTE PTR [rax]
    2685:	0f b6 c0             	movzx  eax,al
    2688:	89 c6                	mov    esi,eax
    268a:	48 8d 3d 44 3a 00 00 	lea    rdi,[rip+0x3a44]        # 60d5 <_IO_stdin_used+0xd5>
    2691:	b8 00 00 00 00       	mov    eax,0x0
    2696:	e8 fb fc ff ff       	call   2396 <xlog_info_x>
    269b:	eb 2a                	jmp    26c7 <xlog_hexdump+0x217>
    269d:	83 7d f0 0e          	cmp    DWORD PTR [rbp-0x10],0xe
    26a1:	77 13                	ja     26b6 <xlog_hexdump+0x206>
    26a3:	48 8d 3d 25 3a 00 00 	lea    rdi,[rip+0x3a25]        # 60cf <_IO_stdin_used+0xcf>
    26aa:	b8 00 00 00 00       	mov    eax,0x0
    26af:	e8 e2 fc ff ff       	call   2396 <xlog_info_x>
    26b4:	eb 11                	jmp    26c7 <xlog_hexdump+0x217>
    26b6:	48 8d 3d 1d 3a 00 00 	lea    rdi,[rip+0x3a1d]        # 60da <_IO_stdin_used+0xda>
    26bd:	b8 00 00 00 00       	mov    eax,0x0
    26c2:	e8 cf fc ff ff       	call   2396 <xlog_info_x>
    26c7:	83 45 f0 01          	add    DWORD PTR [rbp-0x10],0x1
    26cb:	83 7d f0 0f          	cmp    DWORD PTR [rbp-0x10],0xf
    26cf:	0f 86 4d ff ff ff    	jbe    2622 <xlog_hexdump+0x172>
    26d5:	48 8d 3d 01 3a 00 00 	lea    rdi,[rip+0x3a01]        # 60dd <_IO_stdin_used+0xdd>
    26dc:	b8 00 00 00 00       	mov    eax,0x0
    26e1:	e8 b0 fc ff ff       	call   2396 <xlog_info_x>
    26e6:	48 8d 3d f5 39 00 00 	lea    rdi,[rip+0x39f5]        # 60e2 <_IO_stdin_used+0xe2>
    26ed:	b8 00 00 00 00       	mov    eax,0x0
    26f2:	e8 9f fc ff ff       	call   2396 <xlog_info_x>
    26f7:	c7 45 f4 00 00 00 00 	mov    DWORD PTR [rbp-0xc],0x0
    26fe:	e9 fb 00 00 00       	jmp    27fe <xlog_hexdump+0x34e>
    2703:	8b 45 e8             	mov    eax,DWORD PTR [rbp-0x18]
    2706:	c1 e0 04             	shl    eax,0x4
    2709:	89 c2                	mov    edx,eax
    270b:	8b 45 f4             	mov    eax,DWORD PTR [rbp-0xc]
    270e:	01 d0                	add    eax,edx
    2710:	89 c0                	mov    eax,eax
    2712:	48 39 45 d0          	cmp    QWORD PTR [rbp-0x30],rax
    2716:	0f 86 cd 00 00 00    	jbe    27e9 <xlog_hexdump+0x339>
    271c:	8b 45 e8             	mov    eax,DWORD PTR [rbp-0x18]
    271f:	c1 e0 04             	shl    eax,0x4
    2722:	89 c2                	mov    edx,eax
    2724:	8b 45 f4             	mov    eax,DWORD PTR [rbp-0xc]
    2727:	48 01 c2             	add    rdx,rax
    272a:	48 8b 45 d8          	mov    rax,QWORD PTR [rbp-0x28]
    272e:	48 01 d0             	add    rax,rdx
    2731:	0f b6 00             	movzx  eax,BYTE PTR [rax]
    2734:	88 45 e7             	mov    BYTE PTR [rbp-0x19],al
    2737:	e8 f4 fa ff ff       	call   2230 <__ctype_b_loc@plt>
    273c:	48 8b 00             	mov    rax,QWORD PTR [rax]
    273f:	0f b6 55 e7          	movzx  edx,BYTE PTR [rbp-0x19]
    2743:	48 01 d2             	add    rdx,rdx
    2746:	48 01 d0             	add    rax,rdx
    2749:	0f b7 00             	movzx  eax,WORD PTR [rax]
    274c:	0f b7 c0             	movzx  eax,ax
    274f:	25 00 04 00 00       	and    eax,0x400
    2754:	85 c0                	test   eax,eax
    2756:	75 52                	jne    27aa <xlog_hexdump+0x2fa>
    2758:	e8 d3 fa ff ff       	call   2230 <__ctype_b_loc@plt>
    275d:	48 8b 00             	mov    rax,QWORD PTR [rax]
    2760:	0f b6 55 e7          	movzx  edx,BYTE PTR [rbp-0x19]
    2764:	48 01 d2             	add    rdx,rdx
    2767:	48 01 d0             	add    rax,rdx
    276a:	0f b7 00             	movzx  eax,WORD PTR [rax]
    276d:	0f b7 c0             	movzx  eax,ax
    2770:	25 00 08 00 00       	and    eax,0x800
    2775:	85 c0                	test   eax,eax
    2777:	75 34                	jne    27ad <xlog_hexdump+0x2fd>
    2779:	e8 b2 fa ff ff       	call   2230 <__ctype_b_loc@plt>
    277e:	48 8b 00             	mov    rax,QWORD PTR [rax]
    2781:	0f b6 55 e7          	movzx  edx,BYTE PTR [rbp-0x19]
    2785:	48 01 d2             	add    rdx,rdx
    2788:	48 01 d0             	add    rax,rdx
    278b:	0f b7 00             	movzx  eax,WORD PTR [rax]
    278e:	0f b7 c0             	movzx  eax,ax
    2791:	83 e0 04             	and    eax,0x4
    2794:	85 c0                	test   eax,eax
    2796:	75 18                	jne    27b0 <xlog_hexdump+0x300>
    2798:	80 7d e7 20          	cmp    BYTE PTR [rbp-0x19],0x20
    279c:	74 15                	je     27b3 <xlog_hexdump+0x303>
    279e:	80 7d e7 00          	cmp    BYTE PTR [rbp-0x19],0x0
    27a2:	74 12                	je     27b6 <xlog_hexdump+0x306>
    27a4:	c6 45 e7 2e          	mov    BYTE PTR [rbp-0x19],0x2e
    27a8:	eb 0d                	jmp    27b7 <xlog_hexdump+0x307>
    27aa:	90                   	nop
    27ab:	eb 0a                	jmp    27b7 <xlog_hexdump+0x307>
    27ad:	90                   	nop
    27ae:	eb 07                	jmp    27b7 <xlog_hexdump+0x307>
    27b0:	90                   	nop
    27b1:	eb 04                	jmp    27b7 <xlog_hexdump+0x307>
    27b3:	90                   	nop
    27b4:	eb 01                	jmp    27b7 <xlog_hexdump+0x307>
    27b6:	90                   	nop
    27b7:	80 7d e7 00          	cmp    BYTE PTR [rbp-0x19],0x0
    27bb:	75 13                	jne    27d0 <xlog_hexdump+0x320>
    27bd:	48 8d 3d 20 39 00 00 	lea    rdi,[rip+0x3920]        # 60e4 <_IO_stdin_used+0xe4>
    27c4:	b8 00 00 00 00       	mov    eax,0x0
    27c9:	e8 c8 fb ff ff       	call   2396 <xlog_info_x>
    27ce:	eb 2a                	jmp    27fa <xlog_hexdump+0x34a>
    27d0:	0f b6 45 e7          	movzx  eax,BYTE PTR [rbp-0x19]
    27d4:	89 c6                	mov    esi,eax
    27d6:	48 8d 3d 12 39 00 00 	lea    rdi,[rip+0x3912]        # 60ef <_IO_stdin_used+0xef>
    27dd:	b8 00 00 00 00       	mov    eax,0x0
    27e2:	e8 af fb ff ff       	call   2396 <xlog_info_x>
    27e7:	eb 11                	jmp    27fa <xlog_hexdump+0x34a>
    27e9:	48 8d 3d 02 39 00 00 	lea    rdi,[rip+0x3902]        # 60f2 <_IO_stdin_used+0xf2>
    27f0:	b8 00 00 00 00       	mov    eax,0x0
    27f5:	e8 9c fb ff ff       	call   2396 <xlog_info_x>
    27fa:	83 45 f4 01          	add    DWORD PTR [rbp-0xc],0x1
    27fe:	83 7d f4 0f          	cmp    DWORD PTR [rbp-0xc],0xf
    2802:	0f 86 fb fe ff ff    	jbe    2703 <xlog_hexdump+0x253>
    2808:	48 8d 3d d3 38 00 00 	lea    rdi,[rip+0x38d3]        # 60e2 <_IO_stdin_used+0xe2>
    280f:	b8 00 00 00 00       	mov    eax,0x0
    2814:	e8 7d fb ff ff       	call   2396 <xlog_info_x>
    2819:	48 8d 3d f0 37 00 00 	lea    rdi,[rip+0x37f0]        # 6010 <_IO_stdin_used+0x10>
    2820:	b8 00 00 00 00       	mov    eax,0x0
    2825:	e8 6c fb ff ff       	call   2396 <xlog_info_x>
    282a:	83 45 e8 01          	add    DWORD PTR [rbp-0x18],0x1
    282e:	8b 45 e8             	mov    eax,DWORD PTR [rbp-0x18]
    2831:	3b 45 fc             	cmp    eax,DWORD PTR [rbp-0x4]
    2834:	0f 82 38 fd ff ff    	jb     2572 <xlog_hexdump+0xc2>
    283a:	48 8d 3d 1f 38 00 00 	lea    rdi,[rip+0x381f]        # 6060 <_IO_stdin_used+0x60>
    2841:	b8 00 00 00 00       	mov    eax,0x0
    2846:	e8 4b fb ff ff       	call   2396 <xlog_info_x>
    284b:	48 8d 3d be 37 00 00 	lea    rdi,[rip+0x37be]        # 6010 <_IO_stdin_used+0x10>
    2852:	b8 00 00 00 00       	mov    eax,0x0
    2857:	e8 3a fb ff ff       	call   2396 <xlog_info_x>
    285c:	b8 00 00 00 00       	mov    eax,0x0
    2861:	e8 e4 fa ff ff       	call   234a <xlog_mutex_unlock>
    2866:	8b 45 f8             	mov    eax,DWORD PTR [rbp-0x8]
    2869:	c9                   	leave  
    286a:	c3                   	ret    

000000000000286b <xlog_info>:
    286b:	f3 0f 1e fa          	endbr64 
    286f:	55                   	push   rbp
    2870:	48 89 e5             	mov    rbp,rsp
    2873:	48 81 ec f0 00 00 00 	sub    rsp,0xf0
    287a:	48 89 bd 18 ff ff ff 	mov    QWORD PTR [rbp-0xe8],rdi
    2881:	48 89 b5 58 ff ff ff 	mov    QWORD PTR [rbp-0xa8],rsi
    2888:	48 89 95 60 ff ff ff 	mov    QWORD PTR [rbp-0xa0],rdx
    288f:	48 89 8d 68 ff ff ff 	mov    QWORD PTR [rbp-0x98],rcx
    2896:	4c 89 85 70 ff ff ff 	mov    QWORD PTR [rbp-0x90],r8
    289d:	4c 89 8d 78 ff ff ff 	mov    QWORD PTR [rbp-0x88],r9
    28a4:	84 c0                	test   al,al
    28a6:	74 20                	je     28c8 <xlog_info+0x5d>
    28a8:	0f 29 45 80          	movaps XMMWORD PTR [rbp-0x80],xmm0
    28ac:	0f 29 4d 90          	movaps XMMWORD PTR [rbp-0x70],xmm1
    28b0:	0f 29 55 a0          	movaps XMMWORD PTR [rbp-0x60],xmm2
    28b4:	0f 29 5d b0          	movaps XMMWORD PTR [rbp-0x50],xmm3
    28b8:	0f 29 65 c0          	movaps XMMWORD PTR [rbp-0x40],xmm4
    28bc:	0f 29 6d d0          	movaps XMMWORD PTR [rbp-0x30],xmm5
    28c0:	0f 29 75 e0          	movaps XMMWORD PTR [rbp-0x20],xmm6
    28c4:	0f 29 7d f0          	movaps XMMWORD PTR [rbp-0x10],xmm7
    28c8:	64 48 8b 04 25 28 00 	mov    rax,QWORD PTR fs:0x28
    28cf:	00 00 
    28d1:	48 89 85 48 ff ff ff 	mov    QWORD PTR [rbp-0xb8],rax
    28d8:	31 c0                	xor    eax,eax
    28da:	c7 85 28 ff ff ff 00 	mov    DWORD PTR [rbp-0xd8],0x0
    28e1:	00 00 00 
    28e4:	b8 00 00 00 00       	mov    eax,0x0
    28e9:	e8 51 fa ff ff       	call   233f <xlog_mutex_lock>
    28ee:	c7 85 2c ff ff ff 01 	mov    DWORD PTR [rbp-0xd4],0x1
    28f5:	00 00 00 
    28f8:	83 bd 2c ff ff ff 00 	cmp    DWORD PTR [rbp-0xd4],0x0
    28ff:	74 6f                	je     2970 <xlog_info+0x105>
    2901:	48 c7 85 30 ff ff ff 	mov    QWORD PTR [rbp-0xd0],0x0
    2908:	00 00 00 00 
    290c:	48 c7 85 38 ff ff ff 	mov    QWORD PTR [rbp-0xc8],0x0
    2913:	00 00 00 00 
    2917:	48 c7 85 40 ff ff ff 	mov    QWORD PTR [rbp-0xc0],0x0
    291e:	00 00 00 00 
    2922:	c7 85 30 ff ff ff 08 	mov    DWORD PTR [rbp-0xd0],0x8
    2929:	00 00 00 
    292c:	c7 85 34 ff ff ff 30 	mov    DWORD PTR [rbp-0xcc],0x30
    2933:	00 00 00 
    2936:	48 8d 45 10          	lea    rax,[rbp+0x10]
    293a:	48 89 85 38 ff ff ff 	mov    QWORD PTR [rbp-0xc8],rax
    2941:	48 8d 85 50 ff ff ff 	lea    rax,[rbp-0xb0]
    2948:	48 89 85 40 ff ff ff 	mov    QWORD PTR [rbp-0xc0],rax
    294f:	48 8d 95 30 ff ff ff 	lea    rdx,[rbp-0xd0]
    2956:	48 8b 85 18 ff ff ff 	mov    rax,QWORD PTR [rbp-0xe8]
    295d:	48 89 c6             	mov    rsi,rax
    2960:	bf 01 00 00 00       	mov    edi,0x1
    2965:	e8 eb f9 ff ff       	call   2355 <xlog_core>
    296a:	89 85 28 ff ff ff    	mov    DWORD PTR [rbp-0xd8],eax
    2970:	b8 00 00 00 00       	mov    eax,0x0
    2975:	e8 d0 f9 ff ff       	call   234a <xlog_mutex_unlock>
    297a:	8b 85 28 ff ff ff    	mov    eax,DWORD PTR [rbp-0xd8]
    2980:	48 8b 8d 48 ff ff ff 	mov    rcx,QWORD PTR [rbp-0xb8]
    2987:	64 48 33 0c 25 28 00 	xor    rcx,QWORD PTR fs:0x28
    298e:	00 00 
    2990:	74 05                	je     2997 <xlog_info+0x12c>
    2992:	e8 f9 f7 ff ff       	call   2190 <__stack_chk_fail@plt>
    2997:	c9                   	leave  
    2998:	c3                   	ret    

0000000000002999 <get_elf64_data>:
    2999:	f3 0f 1e fa          	endbr64 
    299d:	55                   	push   rbp
    299e:	48 89 e5             	mov    rbp,rsp
    29a1:	48 81 ec d0 00 00 00 	sub    rsp,0xd0
    29a8:	48 89 bd 38 ff ff ff 	mov    QWORD PTR [rbp-0xc8],rdi
    29af:	48 89 b5 30 ff ff ff 	mov    QWORD PTR [rbp-0xd0],rsi
    29b6:	64 48 8b 04 25 28 00 	mov    rax,QWORD PTR fs:0x28
    29bd:	00 00 
    29bf:	48 89 45 f8          	mov    QWORD PTR [rbp-0x8],rax
    29c3:	31 c0                	xor    eax,eax
    29c5:	48 8b 85 38 ff ff ff 	mov    rax,QWORD PTR [rbp-0xc8]
    29cc:	48 89 c6             	mov    rsi,rax
    29cf:	48 8d 3d 22 37 00 00 	lea    rdi,[rip+0x3722]        # 60f8 <_IO_stdin_used+0xf8>
    29d6:	b8 00 00 00 00       	mov    eax,0x0
    29db:	e8 8b fe ff ff       	call   286b <xlog_info>
    29e0:	48 8b 85 30 ff ff ff 	mov    rax,QWORD PTR [rbp-0xd0]
    29e7:	48 c7 00 12 00 00 00 	mov    QWORD PTR [rax],0x12
    29ee:	48 c7 85 48 ff ff ff 	mov    QWORD PTR [rbp-0xb8],0x0
    29f5:	00 00 00 00 
    29f9:	48 8d 95 60 ff ff ff 	lea    rdx,[rbp-0xa0]
    2a00:	b8 00 00 00 00       	mov    eax,0x0
    2a05:	b9 12 00 00 00       	mov    ecx,0x12
    2a0a:	48 89 d7             	mov    rdi,rdx
    2a0d:	f3 48 ab             	rep stos QWORD PTR es:[rdi],rax
    2a10:	48 8d 95 60 ff ff ff 	lea    rdx,[rbp-0xa0]
    2a17:	48 8b 85 38 ff ff ff 	mov    rax,QWORD PTR [rbp-0xc8]
    2a1e:	48 89 d6             	mov    rsi,rdx
    2a21:	48 89 c7             	mov    rdi,rax
    2a24:	e8 27 2b 00 00       	call   5550 <__stat>
    2a29:	48 8b 45 90          	mov    rax,QWORD PTR [rbp-0x70]
    2a2d:	89 85 44 ff ff ff    	mov    DWORD PTR [rbp-0xbc],eax
    2a33:	83 bd 44 ff ff ff 00 	cmp    DWORD PTR [rbp-0xbc],0x0
    2a3a:	0f 84 d8 00 00 00    	je     2b18 <get_elf64_data+0x17f>
    2a40:	81 bd 44 ff ff ff ff 	cmp    DWORD PTR [rbp-0xbc],0x9fffff
    2a47:	ff 9f 00 
    2a4a:	0f 87 c8 00 00 00    	ja     2b18 <get_elf64_data+0x17f>
    2a50:	48 8b 85 38 ff ff ff 	mov    rax,QWORD PTR [rbp-0xc8]
    2a57:	48 8d 35 c1 36 00 00 	lea    rsi,[rip+0x36c1]        # 611f <_IO_stdin_used+0x11f>
    2a5e:	48 89 c7             	mov    rdi,rax
    2a61:	e8 ba f7 ff ff       	call   2220 <fopen@plt>
    2a66:	48 89 85 50 ff ff ff 	mov    QWORD PTR [rbp-0xb0],rax
    2a6d:	48 83 bd 50 ff ff ff 	cmp    QWORD PTR [rbp-0xb0],0x0
    2a74:	00 
    2a75:	75 0a                	jne    2a81 <get_elf64_data+0xe8>
    2a77:	b8 00 00 00 00       	mov    eax,0x0
    2a7c:	e9 ad 00 00 00       	jmp    2b2e <get_elf64_data+0x195>
    2a81:	8b 95 44 ff ff ff    	mov    edx,DWORD PTR [rbp-0xbc]
    2a87:	48 8b 85 30 ff ff ff 	mov    rax,QWORD PTR [rbp-0xd0]
    2a8e:	48 89 10             	mov    QWORD PTR [rax],rdx
    2a91:	8b 85 44 ff ff ff    	mov    eax,DWORD PTR [rbp-0xbc]
    2a97:	c1 e8 02             	shr    eax,0x2
    2a9a:	83 c0 02             	add    eax,0x2
    2a9d:	89 c0                	mov    eax,eax
    2a9f:	be 04 00 00 00       	mov    esi,0x4
    2aa4:	48 89 c7             	mov    rdi,rax
    2aa7:	e8 14 f7 ff ff       	call   21c0 <calloc@plt>
    2aac:	48 89 85 48 ff ff ff 	mov    QWORD PTR [rbp-0xb8],rax
    2ab3:	8b 95 44 ff ff ff    	mov    edx,DWORD PTR [rbp-0xbc]
    2ab9:	48 8b 8d 50 ff ff ff 	mov    rcx,QWORD PTR [rbp-0xb0]
    2ac0:	48 8b 85 48 ff ff ff 	mov    rax,QWORD PTR [rbp-0xb8]
    2ac7:	be 01 00 00 00       	mov    esi,0x1
    2acc:	48 89 c7             	mov    rdi,rax
    2acf:	e8 9c f6 ff ff       	call   2170 <fread@plt>
    2ad4:	48 89 85 58 ff ff ff 	mov    QWORD PTR [rbp-0xa8],rax
    2adb:	48 8b 85 50 ff ff ff 	mov    rax,QWORD PTR [rbp-0xb0]
    2ae2:	48 89 c7             	mov    rdi,rax
    2ae5:	e8 96 f6 ff ff       	call   2180 <fclose@plt>
    2aea:	8b 85 44 ff ff ff    	mov    eax,DWORD PTR [rbp-0xbc]
    2af0:	48 39 85 58 ff ff ff 	cmp    QWORD PTR [rbp-0xa8],rax
    2af7:	74 16                	je     2b0f <get_elf64_data+0x176>
    2af9:	48 8b 85 48 ff ff ff 	mov    rax,QWORD PTR [rbp-0xb8]
    2b00:	48 89 c7             	mov    rdi,rax
    2b03:	e8 38 f6 ff ff       	call   2140 <free@plt>
    2b08:	b8 00 00 00 00       	mov    eax,0x0
    2b0d:	eb 1f                	jmp    2b2e <get_elf64_data+0x195>
    2b0f:	48 8b 85 48 ff ff ff 	mov    rax,QWORD PTR [rbp-0xb8]
    2b16:	eb 16                	jmp    2b2e <get_elf64_data+0x195>
    2b18:	48 8d 3d 03 36 00 00 	lea    rdi,[rip+0x3603]        # 6122 <_IO_stdin_used+0x122>
    2b1f:	b8 00 00 00 00       	mov    eax,0x0
    2b24:	e8 42 fd ff ff       	call   286b <xlog_info>
    2b29:	b8 00 00 00 00       	mov    eax,0x0
    2b2e:	48 8b 4d f8          	mov    rcx,QWORD PTR [rbp-0x8]
    2b32:	64 48 33 0c 25 28 00 	xor    rcx,QWORD PTR fs:0x28
    2b39:	00 00 
    2b3b:	74 05                	je     2b42 <get_elf64_data+0x1a9>
    2b3d:	e8 4e f6 ff ff       	call   2190 <__stack_chk_fail@plt>
    2b42:	c9                   	leave  
    2b43:	c3                   	ret    

0000000000002b44 <PrtSectHeader>:
    2b44:	f3 0f 1e fa          	endbr64 
    2b48:	55                   	push   rbp
    2b49:	48 89 e5             	mov    rbp,rsp
    2b4c:	48 83 ec 10          	sub    rsp,0x10
    2b50:	89 7d fc             	mov    DWORD PTR [rbp-0x4],edi
    2b53:	48 89 75 f0          	mov    QWORD PTR [rbp-0x10],rsi
    2b57:	8b 45 fc             	mov    eax,DWORD PTR [rbp-0x4]
    2b5a:	89 c6                	mov    esi,eax
    2b5c:	48 8d 3d dd 35 00 00 	lea    rdi,[rip+0x35dd]        # 6140 <_IO_stdin_used+0x140>
    2b63:	b8 00 00 00 00       	mov    eax,0x0
    2b68:	e8 fe fc ff ff       	call   286b <xlog_info>
    2b6d:	48 8b 45 f0          	mov    rax,QWORD PTR [rbp-0x10]
    2b71:	48 89 c6             	mov    rsi,rax
    2b74:	48 8d 3d 05 36 00 00 	lea    rdi,[rip+0x3605]        # 6180 <_IO_stdin_used+0x180>
    2b7b:	b8 00 00 00 00       	mov    eax,0x0
    2b80:	e8 e6 fc ff ff       	call   286b <xlog_info>
    2b85:	48 8d 3d 2c 36 00 00 	lea    rdi,[rip+0x362c]        # 61b8 <_IO_stdin_used+0x1b8>
    2b8c:	b8 00 00 00 00       	mov    eax,0x0
    2b91:	e8 d5 fc ff ff       	call   286b <xlog_info>
    2b96:	48 8b 45 f0          	mov    rax,QWORD PTR [rbp-0x10]
    2b9a:	8b 00                	mov    eax,DWORD PTR [rax]
    2b9c:	89 c6                	mov    esi,eax
    2b9e:	48 8d 3d 23 36 00 00 	lea    rdi,[rip+0x3623]        # 61c8 <_IO_stdin_used+0x1c8>
    2ba5:	b8 00 00 00 00       	mov    eax,0x0
    2baa:	e8 bc fc ff ff       	call   286b <xlog_info>
    2baf:	48 8b 45 f0          	mov    rax,QWORD PTR [rbp-0x10]
    2bb3:	8b 40 04             	mov    eax,DWORD PTR [rax+0x4]
    2bb6:	89 c6                	mov    esi,eax
    2bb8:	48 8d 3d 41 36 00 00 	lea    rdi,[rip+0x3641]        # 6200 <_IO_stdin_used+0x200>
    2bbf:	b8 00 00 00 00       	mov    eax,0x0
    2bc4:	e8 a2 fc ff ff       	call   286b <xlog_info>
    2bc9:	48 8b 45 f0          	mov    rax,QWORD PTR [rbp-0x10]
    2bcd:	48 8b 40 08          	mov    rax,QWORD PTR [rax+0x8]
    2bd1:	48 89 c6             	mov    rsi,rax
    2bd4:	48 8d 3d 5d 36 00 00 	lea    rdi,[rip+0x365d]        # 6238 <_IO_stdin_used+0x238>
    2bdb:	b8 00 00 00 00       	mov    eax,0x0
    2be0:	e8 86 fc ff ff       	call   286b <xlog_info>
    2be5:	48 8b 45 f0          	mov    rax,QWORD PTR [rbp-0x10]
    2be9:	48 8b 40 10          	mov    rax,QWORD PTR [rax+0x10]
    2bed:	48 89 c6             	mov    rsi,rax
    2bf0:	48 8d 3d 79 36 00 00 	lea    rdi,[rip+0x3679]        # 6270 <_IO_stdin_used+0x270>
    2bf7:	b8 00 00 00 00       	mov    eax,0x0
    2bfc:	e8 6a fc ff ff       	call   286b <xlog_info>
    2c01:	48 8b 45 f0          	mov    rax,QWORD PTR [rbp-0x10]
    2c05:	48 8b 40 18          	mov    rax,QWORD PTR [rax+0x18]
    2c09:	48 89 c6             	mov    rsi,rax
    2c0c:	48 8d 3d 95 36 00 00 	lea    rdi,[rip+0x3695]        # 62a8 <_IO_stdin_used+0x2a8>
    2c13:	b8 00 00 00 00       	mov    eax,0x0
    2c18:	e8 4e fc ff ff       	call   286b <xlog_info>
    2c1d:	48 8b 45 f0          	mov    rax,QWORD PTR [rbp-0x10]
    2c21:	48 8b 40 20          	mov    rax,QWORD PTR [rax+0x20]
    2c25:	48 89 c6             	mov    rsi,rax
    2c28:	48 8d 3d b1 36 00 00 	lea    rdi,[rip+0x36b1]        # 62e0 <_IO_stdin_used+0x2e0>
    2c2f:	b8 00 00 00 00       	mov    eax,0x0
    2c34:	e8 32 fc ff ff       	call   286b <xlog_info>
    2c39:	48 8b 45 f0          	mov    rax,QWORD PTR [rbp-0x10]
    2c3d:	8b 40 28             	mov    eax,DWORD PTR [rax+0x28]
    2c40:	89 c6                	mov    esi,eax
    2c42:	48 8d 3d cf 36 00 00 	lea    rdi,[rip+0x36cf]        # 6318 <_IO_stdin_used+0x318>
    2c49:	b8 00 00 00 00       	mov    eax,0x0
    2c4e:	e8 18 fc ff ff       	call   286b <xlog_info>
    2c53:	48 8b 45 f0          	mov    rax,QWORD PTR [rbp-0x10]
    2c57:	8b 40 2c             	mov    eax,DWORD PTR [rax+0x2c]
    2c5a:	89 c6                	mov    esi,eax
    2c5c:	48 8d 3d ed 36 00 00 	lea    rdi,[rip+0x36ed]        # 6350 <_IO_stdin_used+0x350>
    2c63:	b8 00 00 00 00       	mov    eax,0x0
    2c68:	e8 fe fb ff ff       	call   286b <xlog_info>
    2c6d:	48 8b 45 f0          	mov    rax,QWORD PTR [rbp-0x10]
    2c71:	48 8b 40 30          	mov    rax,QWORD PTR [rax+0x30]
    2c75:	48 89 c6             	mov    rsi,rax
    2c78:	48 8d 3d 09 37 00 00 	lea    rdi,[rip+0x3709]        # 6388 <_IO_stdin_used+0x388>
    2c7f:	b8 00 00 00 00       	mov    eax,0x0
    2c84:	e8 e2 fb ff ff       	call   286b <xlog_info>
    2c89:	48 8b 45 f0          	mov    rax,QWORD PTR [rbp-0x10]
    2c8d:	48 8b 40 38          	mov    rax,QWORD PTR [rax+0x38]
    2c91:	48 89 c6             	mov    rsi,rax
    2c94:	48 8d 3d 25 37 00 00 	lea    rdi,[rip+0x3725]        # 63c0 <_IO_stdin_used+0x3c0>
    2c9b:	b8 00 00 00 00       	mov    eax,0x0
    2ca0:	e8 c6 fb ff ff       	call   286b <xlog_info>
    2ca5:	48 8d 3d 47 37 00 00 	lea    rdi,[rip+0x3747]        # 63f3 <_IO_stdin_used+0x3f3>
    2cac:	b8 00 00 00 00       	mov    eax,0x0
    2cb1:	e8 b5 fb ff ff       	call   286b <xlog_info>
    2cb6:	b8 00 00 00 00       	mov    eax,0x0
    2cbb:	c9                   	leave  
    2cbc:	c3                   	ret    

0000000000002cbd <PrtProgHeader>:
    2cbd:	f3 0f 1e fa          	endbr64 
    2cc1:	55                   	push   rbp
    2cc2:	48 89 e5             	mov    rbp,rsp
    2cc5:	48 83 ec 10          	sub    rsp,0x10
    2cc9:	89 7d fc             	mov    DWORD PTR [rbp-0x4],edi
    2ccc:	48 89 75 f0          	mov    QWORD PTR [rbp-0x10],rsi
    2cd0:	8b 45 fc             	mov    eax,DWORD PTR [rbp-0x4]
    2cd3:	89 c6                	mov    esi,eax
    2cd5:	48 8d 3d 64 34 00 00 	lea    rdi,[rip+0x3464]        # 6140 <_IO_stdin_used+0x140>
    2cdc:	b8 00 00 00 00       	mov    eax,0x0
    2ce1:	e8 85 fb ff ff       	call   286b <xlog_info>
    2ce6:	48 8d 3d 13 37 00 00 	lea    rdi,[rip+0x3713]        # 6400 <_IO_stdin_used+0x400>
    2ced:	b8 00 00 00 00       	mov    eax,0x0
    2cf2:	e8 74 fb ff ff       	call   286b <xlog_info>
    2cf7:	48 8d 3d ba 34 00 00 	lea    rdi,[rip+0x34ba]        # 61b8 <_IO_stdin_used+0x1b8>
    2cfe:	b8 00 00 00 00       	mov    eax,0x0
    2d03:	e8 63 fb ff ff       	call   286b <xlog_info>
    2d08:	48 8b 45 f0          	mov    rax,QWORD PTR [rbp-0x10]
    2d0c:	8b 00                	mov    eax,DWORD PTR [rax]
    2d0e:	89 c6                	mov    esi,eax
    2d10:	48 8d 3d 11 37 00 00 	lea    rdi,[rip+0x3711]        # 6428 <_IO_stdin_used+0x428>
    2d17:	b8 00 00 00 00       	mov    eax,0x0
    2d1c:	e8 4a fb ff ff       	call   286b <xlog_info>
    2d21:	48 8b 45 f0          	mov    rax,QWORD PTR [rbp-0x10]
    2d25:	8b 40 04             	mov    eax,DWORD PTR [rax+0x4]
    2d28:	89 c6                	mov    esi,eax
    2d2a:	48 8d 3d 27 37 00 00 	lea    rdi,[rip+0x3727]        # 6458 <_IO_stdin_used+0x458>
    2d31:	b8 00 00 00 00       	mov    eax,0x0
    2d36:	e8 30 fb ff ff       	call   286b <xlog_info>
    2d3b:	48 8b 45 f0          	mov    rax,QWORD PTR [rbp-0x10]
    2d3f:	48 8b 40 08          	mov    rax,QWORD PTR [rax+0x8]
    2d43:	48 89 c6             	mov    rsi,rax
    2d46:	48 8d 3d 3b 37 00 00 	lea    rdi,[rip+0x373b]        # 6488 <_IO_stdin_used+0x488>
    2d4d:	b8 00 00 00 00       	mov    eax,0x0
    2d52:	e8 14 fb ff ff       	call   286b <xlog_info>
    2d57:	48 8b 45 f0          	mov    rax,QWORD PTR [rbp-0x10]
    2d5b:	48 8b 40 10          	mov    rax,QWORD PTR [rax+0x10]
    2d5f:	48 89 c6             	mov    rsi,rax
    2d62:	48 8d 3d 4f 37 00 00 	lea    rdi,[rip+0x374f]        # 64b8 <_IO_stdin_used+0x4b8>
    2d69:	b8 00 00 00 00       	mov    eax,0x0
    2d6e:	e8 f8 fa ff ff       	call   286b <xlog_info>
    2d73:	48 8b 45 f0          	mov    rax,QWORD PTR [rbp-0x10]
    2d77:	48 8b 40 18          	mov    rax,QWORD PTR [rax+0x18]
    2d7b:	48 89 c6             	mov    rsi,rax
    2d7e:	48 8d 3d 63 37 00 00 	lea    rdi,[rip+0x3763]        # 64e8 <_IO_stdin_used+0x4e8>
    2d85:	b8 00 00 00 00       	mov    eax,0x0
    2d8a:	e8 dc fa ff ff       	call   286b <xlog_info>
    2d8f:	48 8b 45 f0          	mov    rax,QWORD PTR [rbp-0x10]
    2d93:	48 8b 40 20          	mov    rax,QWORD PTR [rax+0x20]
    2d97:	48 89 c6             	mov    rsi,rax
    2d9a:	48 8d 3d 77 37 00 00 	lea    rdi,[rip+0x3777]        # 6518 <_IO_stdin_used+0x518>
    2da1:	b8 00 00 00 00       	mov    eax,0x0
    2da6:	e8 c0 fa ff ff       	call   286b <xlog_info>
    2dab:	48 8b 45 f0          	mov    rax,QWORD PTR [rbp-0x10]
    2daf:	48 8b 40 28          	mov    rax,QWORD PTR [rax+0x28]
    2db3:	48 89 c6             	mov    rsi,rax
    2db6:	48 8d 3d 8b 37 00 00 	lea    rdi,[rip+0x378b]        # 6548 <_IO_stdin_used+0x548>
    2dbd:	b8 00 00 00 00       	mov    eax,0x0
    2dc2:	e8 a4 fa ff ff       	call   286b <xlog_info>
    2dc7:	48 8b 45 f0          	mov    rax,QWORD PTR [rbp-0x10]
    2dcb:	48 8b 40 30          	mov    rax,QWORD PTR [rax+0x30]
    2dcf:	48 89 c6             	mov    rsi,rax
    2dd2:	48 8d 3d 9f 37 00 00 	lea    rdi,[rip+0x379f]        # 6578 <_IO_stdin_used+0x578>
    2dd9:	b8 00 00 00 00       	mov    eax,0x0
    2dde:	e8 88 fa ff ff       	call   286b <xlog_info>
    2de3:	48 8d 3d 09 36 00 00 	lea    rdi,[rip+0x3609]        # 63f3 <_IO_stdin_used+0x3f3>
    2dea:	b8 00 00 00 00       	mov    eax,0x0
    2def:	e8 77 fa ff ff       	call   286b <xlog_info>
    2df4:	b8 00 00 00 00       	mov    eax,0x0
    2df9:	c9                   	leave  
    2dfa:	c3                   	ret    

0000000000002dfb <parse_elf64_elf_header>:
    2dfb:	f3 0f 1e fa          	endbr64 
    2dff:	55                   	push   rbp
    2e00:	48 89 e5             	mov    rbp,rsp
    2e03:	48 83 ec 20          	sub    rsp,0x20
    2e07:	48 89 7d e8          	mov    QWORD PTR [rbp-0x18],rdi
    2e0b:	48 8b 45 e8          	mov    rax,QWORD PTR [rbp-0x18]
    2e0f:	48 89 c1             	mov    rcx,rax
    2e12:	ba 91 01 00 00       	mov    edx,0x191
    2e17:	48 8d 35 e2 46 00 00 	lea    rsi,[rip+0x46e2]        # 7500 <__func__.2504>
    2e1e:	48 8d 3d 83 37 00 00 	lea    rdi,[rip+0x3783]        # 65a8 <_IO_stdin_used+0x5a8>
    2e25:	b8 00 00 00 00       	mov    eax,0x0
    2e2a:	e8 3c fa ff ff       	call   286b <xlog_info>
    2e2f:	48 83 7d e8 00       	cmp    QWORD PTR [rbp-0x18],0x0
    2e34:	0f 84 43 02 00 00    	je     307d <parse_elf64_elf_header+0x282>
    2e3a:	48 8b 45 e8          	mov    rax,QWORD PTR [rbp-0x18]
    2e3e:	48 89 45 f8          	mov    QWORD PTR [rbp-0x8],rax
    2e42:	48 8b 45 f8          	mov    rax,QWORD PTR [rbp-0x8]
    2e46:	48 89 c6             	mov    rsi,rax
    2e49:	48 8d 3d 88 37 00 00 	lea    rdi,[rip+0x3788]        # 65d8 <_IO_stdin_used+0x5d8>
    2e50:	b8 00 00 00 00       	mov    eax,0x0
    2e55:	e8 11 fa ff ff       	call   286b <xlog_info>
    2e5a:	48 8d 3d 57 33 00 00 	lea    rdi,[rip+0x3357]        # 61b8 <_IO_stdin_used+0x1b8>
    2e61:	b8 00 00 00 00       	mov    eax,0x0
    2e66:	e8 00 fa ff ff       	call   286b <xlog_info>
    2e6b:	48 8d 3d 9e 37 00 00 	lea    rdi,[rip+0x379e]        # 6610 <_IO_stdin_used+0x610>
    2e72:	b8 00 00 00 00       	mov    eax,0x0
    2e77:	e8 ef f9 ff ff       	call   286b <xlog_info>
    2e7c:	c7 45 f4 00 00 00 00 	mov    DWORD PTR [rbp-0xc],0x0
    2e83:	eb 52                	jmp    2ed7 <parse_elf64_elf_header+0xdc>
    2e85:	83 7d f4 0e          	cmp    DWORD PTR [rbp-0xc],0xe
    2e89:	7f 25                	jg     2eb0 <parse_elf64_elf_header+0xb5>
    2e8b:	48 8b 55 f8          	mov    rdx,QWORD PTR [rbp-0x8]
    2e8f:	8b 45 f4             	mov    eax,DWORD PTR [rbp-0xc]
    2e92:	48 98                	cdqe   
    2e94:	0f b6 04 02          	movzx  eax,BYTE PTR [rdx+rax*1]
    2e98:	0f b6 c0             	movzx  eax,al
    2e9b:	89 c6                	mov    esi,eax
    2e9d:	48 8d 3d 25 32 00 00 	lea    rdi,[rip+0x3225]        # 60c9 <_IO_stdin_used+0xc9>
    2ea4:	b8 00 00 00 00       	mov    eax,0x0
    2ea9:	e8 bd f9 ff ff       	call   286b <xlog_info>
    2eae:	eb 23                	jmp    2ed3 <parse_elf64_elf_header+0xd8>
    2eb0:	48 8b 55 f8          	mov    rdx,QWORD PTR [rbp-0x8]
    2eb4:	8b 45 f4             	mov    eax,DWORD PTR [rbp-0xc]
    2eb7:	48 98                	cdqe   
    2eb9:	0f b6 04 02          	movzx  eax,BYTE PTR [rdx+rax*1]
    2ebd:	0f b6 c0             	movzx  eax,al
    2ec0:	89 c6                	mov    esi,eax
    2ec2:	48 8d 3d 0c 32 00 00 	lea    rdi,[rip+0x320c]        # 60d5 <_IO_stdin_used+0xd5>
    2ec9:	b8 00 00 00 00       	mov    eax,0x0
    2ece:	e8 98 f9 ff ff       	call   286b <xlog_info>
    2ed3:	83 45 f4 01          	add    DWORD PTR [rbp-0xc],0x1
    2ed7:	83 7d f4 0f          	cmp    DWORD PTR [rbp-0xc],0xf
    2edb:	7e a8                	jle    2e85 <parse_elf64_elf_header+0x8a>
    2edd:	48 8d 3d 5b 37 00 00 	lea    rdi,[rip+0x375b]        # 663f <_IO_stdin_used+0x63f>
    2ee4:	b8 00 00 00 00       	mov    eax,0x0
    2ee9:	e8 7d f9 ff ff       	call   286b <xlog_info>
    2eee:	48 8b 45 f8          	mov    rax,QWORD PTR [rbp-0x8]
    2ef2:	0f b7 40 10          	movzx  eax,WORD PTR [rax+0x10]
    2ef6:	0f b7 c0             	movzx  eax,ax
    2ef9:	89 c6                	mov    esi,eax
    2efb:	48 8d 3d 46 37 00 00 	lea    rdi,[rip+0x3746]        # 6648 <_IO_stdin_used+0x648>
    2f02:	b8 00 00 00 00       	mov    eax,0x0
    2f07:	e8 5f f9 ff ff       	call   286b <xlog_info>
    2f0c:	48 8b 45 f8          	mov    rax,QWORD PTR [rbp-0x8]
    2f10:	0f b7 40 12          	movzx  eax,WORD PTR [rax+0x12]
    2f14:	0f b7 c0             	movzx  eax,ax
    2f17:	89 c6                	mov    esi,eax
    2f19:	48 8d 3d 60 37 00 00 	lea    rdi,[rip+0x3760]        # 6680 <_IO_stdin_used+0x680>
    2f20:	b8 00 00 00 00       	mov    eax,0x0
    2f25:	e8 41 f9 ff ff       	call   286b <xlog_info>
    2f2a:	48 8b 45 f8          	mov    rax,QWORD PTR [rbp-0x8]
    2f2e:	8b 40 14             	mov    eax,DWORD PTR [rax+0x14]
    2f31:	89 c6                	mov    esi,eax
    2f33:	48 8d 3d 7e 37 00 00 	lea    rdi,[rip+0x377e]        # 66b8 <_IO_stdin_used+0x6b8>
    2f3a:	b8 00 00 00 00       	mov    eax,0x0
    2f3f:	e8 27 f9 ff ff       	call   286b <xlog_info>
    2f44:	48 8b 45 f8          	mov    rax,QWORD PTR [rbp-0x8]
    2f48:	48 8b 40 18          	mov    rax,QWORD PTR [rax+0x18]
    2f4c:	48 89 c6             	mov    rsi,rax
    2f4f:	48 8d 3d 9a 37 00 00 	lea    rdi,[rip+0x379a]        # 66f0 <_IO_stdin_used+0x6f0>
    2f56:	b8 00 00 00 00       	mov    eax,0x0
    2f5b:	e8 0b f9 ff ff       	call   286b <xlog_info>
    2f60:	48 8b 45 f8          	mov    rax,QWORD PTR [rbp-0x8]
    2f64:	48 8b 40 20          	mov    rax,QWORD PTR [rax+0x20]
    2f68:	48 89 c6             	mov    rsi,rax
    2f6b:	48 8d 3d b6 37 00 00 	lea    rdi,[rip+0x37b6]        # 6728 <_IO_stdin_used+0x728>
    2f72:	b8 00 00 00 00       	mov    eax,0x0
    2f77:	e8 ef f8 ff ff       	call   286b <xlog_info>
    2f7c:	48 8b 45 f8          	mov    rax,QWORD PTR [rbp-0x8]
    2f80:	48 8b 40 28          	mov    rax,QWORD PTR [rax+0x28]
    2f84:	48 89 c6             	mov    rsi,rax
    2f87:	48 8d 3d d2 37 00 00 	lea    rdi,[rip+0x37d2]        # 6760 <_IO_stdin_used+0x760>
    2f8e:	b8 00 00 00 00       	mov    eax,0x0
    2f93:	e8 d3 f8 ff ff       	call   286b <xlog_info>
    2f98:	48 8b 45 f8          	mov    rax,QWORD PTR [rbp-0x8]
    2f9c:	8b 40 30             	mov    eax,DWORD PTR [rax+0x30]
    2f9f:	89 c6                	mov    esi,eax
    2fa1:	48 8d 3d f0 37 00 00 	lea    rdi,[rip+0x37f0]        # 6798 <_IO_stdin_used+0x798>
    2fa8:	b8 00 00 00 00       	mov    eax,0x0
    2fad:	e8 b9 f8 ff ff       	call   286b <xlog_info>
    2fb2:	48 8b 45 f8          	mov    rax,QWORD PTR [rbp-0x8]
    2fb6:	0f b7 40 34          	movzx  eax,WORD PTR [rax+0x34]
    2fba:	0f b7 c0             	movzx  eax,ax
    2fbd:	89 c6                	mov    esi,eax
    2fbf:	48 8d 3d 0a 38 00 00 	lea    rdi,[rip+0x380a]        # 67d0 <_IO_stdin_used+0x7d0>
    2fc6:	b8 00 00 00 00       	mov    eax,0x0
    2fcb:	e8 9b f8 ff ff       	call   286b <xlog_info>
    2fd0:	48 8b 45 f8          	mov    rax,QWORD PTR [rbp-0x8]
    2fd4:	0f b7 40 36          	movzx  eax,WORD PTR [rax+0x36]
    2fd8:	0f b7 c0             	movzx  eax,ax
    2fdb:	89 c6                	mov    esi,eax
    2fdd:	48 8d 3d 24 38 00 00 	lea    rdi,[rip+0x3824]        # 6808 <_IO_stdin_used+0x808>
    2fe4:	b8 00 00 00 00       	mov    eax,0x0
    2fe9:	e8 7d f8 ff ff       	call   286b <xlog_info>
    2fee:	48 8b 45 f8          	mov    rax,QWORD PTR [rbp-0x8]
    2ff2:	0f b7 40 38          	movzx  eax,WORD PTR [rax+0x38]
    2ff6:	0f b7 c0             	movzx  eax,ax
    2ff9:	89 c6                	mov    esi,eax
    2ffb:	48 8d 3d 3e 38 00 00 	lea    rdi,[rip+0x383e]        # 6840 <_IO_stdin_used+0x840>
    3002:	b8 00 00 00 00       	mov    eax,0x0
    3007:	e8 5f f8 ff ff       	call   286b <xlog_info>
    300c:	48 8b 45 f8          	mov    rax,QWORD PTR [rbp-0x8]
    3010:	0f b7 40 3a          	movzx  eax,WORD PTR [rax+0x3a]
    3014:	0f b7 c0             	movzx  eax,ax
    3017:	89 c6                	mov    esi,eax
    3019:	48 8d 3d 58 38 00 00 	lea    rdi,[rip+0x3858]        # 6878 <_IO_stdin_used+0x878>
    3020:	b8 00 00 00 00       	mov    eax,0x0
    3025:	e8 41 f8 ff ff       	call   286b <xlog_info>
    302a:	48 8b 45 f8          	mov    rax,QWORD PTR [rbp-0x8]
    302e:	0f b7 40 3c          	movzx  eax,WORD PTR [rax+0x3c]
    3032:	0f b7 c0             	movzx  eax,ax
    3035:	89 c6                	mov    esi,eax
    3037:	48 8d 3d 72 38 00 00 	lea    rdi,[rip+0x3872]        # 68b0 <_IO_stdin_used+0x8b0>
    303e:	b8 00 00 00 00       	mov    eax,0x0
    3043:	e8 23 f8 ff ff       	call   286b <xlog_info>
    3048:	48 8b 45 f8          	mov    rax,QWORD PTR [rbp-0x8]
    304c:	0f b7 40 3e          	movzx  eax,WORD PTR [rax+0x3e]
    3050:	0f b7 c0             	movzx  eax,ax
    3053:	89 c6                	mov    esi,eax
    3055:	48 8d 3d 8c 38 00 00 	lea    rdi,[rip+0x388c]        # 68e8 <_IO_stdin_used+0x8e8>
    305c:	b8 00 00 00 00       	mov    eax,0x0
    3061:	e8 05 f8 ff ff       	call   286b <xlog_info>
    3066:	48 8d 3d b1 38 00 00 	lea    rdi,[rip+0x38b1]        # 691e <_IO_stdin_used+0x91e>
    306d:	b8 00 00 00 00       	mov    eax,0x0
    3072:	e8 f4 f7 ff ff       	call   286b <xlog_info>
    3077:	48 8b 45 f8          	mov    rax,QWORD PTR [rbp-0x8]
    307b:	eb 05                	jmp    3082 <parse_elf64_elf_header+0x287>
    307d:	b8 00 00 00 00       	mov    eax,0x0
    3082:	c9                   	leave  
    3083:	c3                   	ret    

0000000000003084 <parse_elf64_sect_header>:
    3084:	f3 0f 1e fa          	endbr64 
    3088:	55                   	push   rbp
    3089:	48 89 e5             	mov    rbp,rsp
    308c:	48 89 7d e8          	mov    QWORD PTR [rbp-0x18],rdi
    3090:	48 89 75 e0          	mov    QWORD PTR [rbp-0x20],rsi
    3094:	89 55 dc             	mov    DWORD PTR [rbp-0x24],edx
    3097:	48 89 4d d0          	mov    QWORD PTR [rbp-0x30],rcx
    309b:	48 8b 45 e0          	mov    rax,QWORD PTR [rbp-0x20]
    309f:	48 89 45 f8          	mov    QWORD PTR [rbp-0x8],rax
    30a3:	48 8b 45 f8          	mov    rax,QWORD PTR [rbp-0x8]
    30a7:	5d                   	pop    rbp
    30a8:	c3                   	ret    

00000000000030a9 <parse_elf64_sect_headers>:
    30a9:	f3 0f 1e fa          	endbr64 
    30ad:	55                   	push   rbp
    30ae:	48 89 e5             	mov    rbp,rsp
    30b1:	41 54                	push   r12
    30b3:	53                   	push   rbx
    30b4:	48 83 ec 40          	sub    rsp,0x40
    30b8:	48 89 7d c8          	mov    QWORD PTR [rbp-0x38],rdi
    30bc:	48 89 75 c0          	mov    QWORD PTR [rbp-0x40],rsi
    30c0:	48 89 55 b8          	mov    QWORD PTR [rbp-0x48],rdx
    30c4:	ba e2 01 00 00       	mov    edx,0x1e2
    30c9:	48 8d 35 50 44 00 00 	lea    rsi,[rip+0x4450]        # 7520 <__func__.2522>
    30d0:	48 8d 3d 59 38 00 00 	lea    rdi,[rip+0x3859]        # 6930 <_IO_stdin_used+0x930>
    30d7:	b8 00 00 00 00       	mov    eax,0x0
    30dc:	e8 8a f7 ff ff       	call   286b <xlog_info>
    30e1:	48 8b 45 c8          	mov    rax,QWORD PTR [rbp-0x38]
    30e5:	0f b7 40 3c          	movzx  eax,WORD PTR [rax+0x3c]
    30e9:	0f b7 c0             	movzx  eax,ax
    30ec:	83 c0 01             	add    eax,0x1
    30ef:	48 98                	cdqe   
    30f1:	be 08 00 00 00       	mov    esi,0x8
    30f6:	48 89 c7             	mov    rdi,rax
    30f9:	e8 c2 f0 ff ff       	call   21c0 <calloc@plt>
    30fe:	48 89 45 e0          	mov    QWORD PTR [rbp-0x20],rax
    3102:	c7 45 d8 00 00 00 00 	mov    DWORD PTR [rbp-0x28],0x0
    3109:	eb 76                	jmp    3181 <parse_elf64_sect_headers+0xd8>
    310b:	48 8b 45 c8          	mov    rax,QWORD PTR [rbp-0x38]
    310f:	0f b7 40 3a          	movzx  eax,WORD PTR [rax+0x3a]
    3113:	0f b7 c0             	movzx  eax,ax
    3116:	0f af 45 d8          	imul   eax,DWORD PTR [rbp-0x28]
    311a:	48 63 d0             	movsxd rdx,eax
    311d:	48 8b 45 c0          	mov    rax,QWORD PTR [rbp-0x40]
    3121:	48 8d 34 02          	lea    rsi,[rdx+rax*1]
    3125:	48 8b 4d b8          	mov    rcx,QWORD PTR [rbp-0x48]
    3129:	8b 55 d8             	mov    edx,DWORD PTR [rbp-0x28]
    312c:	48 8b 45 c8          	mov    rax,QWORD PTR [rbp-0x38]
    3130:	48 89 c7             	mov    rdi,rax
    3133:	e8 4c ff ff ff       	call   3084 <parse_elf64_sect_header>
    3138:	48 89 45 e8          	mov    QWORD PTR [rbp-0x18],rax
    313c:	48 83 7d e8 00       	cmp    QWORD PTR [rbp-0x18],0x0
    3141:	75 1f                	jne    3162 <parse_elf64_sect_headers+0xb9>
    3143:	48 8d 0d f6 43 00 00 	lea    rcx,[rip+0x43f6]        # 7540 <__PRETTY_FUNCTION__.2526>
    314a:	ba ea 01 00 00       	mov    edx,0x1ea
    314f:	48 8d 35 fa 37 00 00 	lea    rsi,[rip+0x37fa]        # 6950 <_IO_stdin_used+0x950>
    3156:	48 8d 3d 06 38 00 00 	lea    rdi,[rip+0x3806]        # 6963 <_IO_stdin_used+0x963>
    315d:	e8 4e f0 ff ff       	call   21b0 <__assert_fail@plt>
    3162:	8b 45 d8             	mov    eax,DWORD PTR [rbp-0x28]
    3165:	48 98                	cdqe   
    3167:	48 8d 14 c5 00 00 00 	lea    rdx,[rax*8+0x0]
    316e:	00 
    316f:	48 8b 45 e0          	mov    rax,QWORD PTR [rbp-0x20]
    3173:	48 01 c2             	add    rdx,rax
    3176:	48 8b 45 e8          	mov    rax,QWORD PTR [rbp-0x18]
    317a:	48 89 02             	mov    QWORD PTR [rdx],rax
    317d:	83 45 d8 01          	add    DWORD PTR [rbp-0x28],0x1
    3181:	48 8b 45 c8          	mov    rax,QWORD PTR [rbp-0x38]
    3185:	0f b7 40 3c          	movzx  eax,WORD PTR [rax+0x3c]
    3189:	0f b7 c0             	movzx  eax,ax
    318c:	39 45 d8             	cmp    DWORD PTR [rbp-0x28],eax
    318f:	0f 8c 76 ff ff ff    	jl     310b <parse_elf64_sect_headers+0x62>
    3195:	ba f3 01 00 00       	mov    edx,0x1f3
    319a:	48 8d 35 7f 43 00 00 	lea    rsi,[rip+0x437f]        # 7520 <__func__.2522>
    31a1:	48 8d 3d 88 37 00 00 	lea    rdi,[rip+0x3788]        # 6930 <_IO_stdin_used+0x930>
    31a8:	b8 00 00 00 00       	mov    eax,0x0
    31ad:	e8 b9 f6 ff ff       	call   286b <xlog_info>
    31b2:	48 8d 3d be 37 00 00 	lea    rdi,[rip+0x37be]        # 6977 <_IO_stdin_used+0x977>
    31b9:	b8 00 00 00 00       	mov    eax,0x0
    31be:	e8 a8 f6 ff ff       	call   286b <xlog_info>
    31c3:	48 8d 3d b6 37 00 00 	lea    rdi,[rip+0x37b6]        # 6980 <_IO_stdin_used+0x980>
    31ca:	b8 00 00 00 00       	mov    eax,0x0
    31cf:	e8 97 f6 ff ff       	call   286b <xlog_info>
    31d4:	48 8d 3d ef 37 00 00 	lea    rdi,[rip+0x37ef]        # 69ca <_IO_stdin_used+0x9ca>
    31db:	b8 00 00 00 00       	mov    eax,0x0
    31e0:	e8 86 f6 ff ff       	call   286b <xlog_info>
    31e5:	48 8d 3d f4 37 00 00 	lea    rdi,[rip+0x37f4]        # 69e0 <_IO_stdin_used+0x9e0>
    31ec:	b8 00 00 00 00       	mov    eax,0x0
    31f1:	e8 75 f6 ff ff       	call   286b <xlog_info>
    31f6:	c7 45 dc 00 00 00 00 	mov    DWORD PTR [rbp-0x24],0x0
    31fd:	e9 47 01 00 00       	jmp    3349 <parse_elf64_sect_headers+0x2a0>
    3202:	8b 45 dc             	mov    eax,DWORD PTR [rbp-0x24]
    3205:	48 98                	cdqe   
    3207:	48 8d 14 c5 00 00 00 	lea    rdx,[rax*8+0x0]
    320e:	00 
    320f:	48 8b 45 e0          	mov    rax,QWORD PTR [rbp-0x20]
    3213:	48 01 d0             	add    rax,rdx
    3216:	48 8b 00             	mov    rax,QWORD PTR [rax]
    3219:	4c 8b 58 30          	mov    r11,QWORD PTR [rax+0x30]
    321d:	8b 45 dc             	mov    eax,DWORD PTR [rbp-0x24]
    3220:	48 98                	cdqe   
    3222:	48 8d 14 c5 00 00 00 	lea    rdx,[rax*8+0x0]
    3229:	00 
    322a:	48 8b 45 e0          	mov    rax,QWORD PTR [rbp-0x20]
    322e:	48 01 d0             	add    rax,rdx
    3231:	48 8b 00             	mov    rax,QWORD PTR [rax]
    3234:	44 8b 50 2c          	mov    r10d,DWORD PTR [rax+0x2c]
    3238:	8b 45 dc             	mov    eax,DWORD PTR [rbp-0x24]
    323b:	48 98                	cdqe   
    323d:	48 8d 14 c5 00 00 00 	lea    rdx,[rax*8+0x0]
    3244:	00 
    3245:	48 8b 45 e0          	mov    rax,QWORD PTR [rbp-0x20]
    3249:	48 01 d0             	add    rax,rdx
    324c:	48 8b 00             	mov    rax,QWORD PTR [rax]
    324f:	44 8b 48 28          	mov    r9d,DWORD PTR [rax+0x28]
    3253:	8b 45 dc             	mov    eax,DWORD PTR [rbp-0x24]
    3256:	48 98                	cdqe   
    3258:	48 8d 14 c5 00 00 00 	lea    rdx,[rax*8+0x0]
    325f:	00 
    3260:	48 8b 45 e0          	mov    rax,QWORD PTR [rbp-0x20]
    3264:	48 01 d0             	add    rax,rdx
    3267:	48 8b 00             	mov    rax,QWORD PTR [rax]
    326a:	4c 8b 40 08          	mov    r8,QWORD PTR [rax+0x8]
    326e:	8b 45 dc             	mov    eax,DWORD PTR [rbp-0x24]
    3271:	48 98                	cdqe   
    3273:	48 8d 14 c5 00 00 00 	lea    rdx,[rax*8+0x0]
    327a:	00 
    327b:	48 8b 45 e0          	mov    rax,QWORD PTR [rbp-0x20]
    327f:	48 01 d0             	add    rax,rdx
    3282:	48 8b 00             	mov    rax,QWORD PTR [rax]
    3285:	48 8b 78 38          	mov    rdi,QWORD PTR [rax+0x38]
    3289:	8b 45 dc             	mov    eax,DWORD PTR [rbp-0x24]
    328c:	48 98                	cdqe   
    328e:	48 8d 14 c5 00 00 00 	lea    rdx,[rax*8+0x0]
    3295:	00 
    3296:	48 8b 45 e0          	mov    rax,QWORD PTR [rbp-0x20]
    329a:	48 01 d0             	add    rax,rdx
    329d:	48 8b 00             	mov    rax,QWORD PTR [rax]
    32a0:	48 8b 48 20          	mov    rcx,QWORD PTR [rax+0x20]
    32a4:	8b 45 dc             	mov    eax,DWORD PTR [rbp-0x24]
    32a7:	48 98                	cdqe   
    32a9:	48 8d 14 c5 00 00 00 	lea    rdx,[rax*8+0x0]
    32b0:	00 
    32b1:	48 8b 45 e0          	mov    rax,QWORD PTR [rbp-0x20]
    32b5:	48 01 d0             	add    rax,rdx
    32b8:	48 8b 00             	mov    rax,QWORD PTR [rax]
    32bb:	4c 8b 60 18          	mov    r12,QWORD PTR [rax+0x18]
    32bf:	8b 45 dc             	mov    eax,DWORD PTR [rbp-0x24]
    32c2:	48 98                	cdqe   
    32c4:	48 8d 14 c5 00 00 00 	lea    rdx,[rax*8+0x0]
    32cb:	00 
    32cc:	48 8b 45 e0          	mov    rax,QWORD PTR [rbp-0x20]
    32d0:	48 01 d0             	add    rax,rdx
    32d3:	48 8b 00             	mov    rax,QWORD PTR [rax]
    32d6:	48 8b 58 10          	mov    rbx,QWORD PTR [rax+0x10]
    32da:	8b 45 dc             	mov    eax,DWORD PTR [rbp-0x24]
    32dd:	48 98                	cdqe   
    32df:	48 8d 14 c5 00 00 00 	lea    rdx,[rax*8+0x0]
    32e6:	00 
    32e7:	48 8b 45 e0          	mov    rax,QWORD PTR [rbp-0x20]
    32eb:	48 01 d0             	add    rax,rdx
    32ee:	48 8b 00             	mov    rax,QWORD PTR [rax]
    32f1:	8b 50 04             	mov    edx,DWORD PTR [rax+0x4]
    32f4:	8b 45 dc             	mov    eax,DWORD PTR [rbp-0x24]
    32f7:	48 98                	cdqe   
    32f9:	48 8d 34 c5 00 00 00 	lea    rsi,[rax*8+0x0]
    3300:	00 
    3301:	48 8b 45 e0          	mov    rax,QWORD PTR [rbp-0x20]
    3305:	48 01 f0             	add    rax,rsi
    3308:	48 8b 00             	mov    rax,QWORD PTR [rax]
    330b:	8b 00                	mov    eax,DWORD PTR [rax]
    330d:	89 c6                	mov    esi,eax
    330f:	48 8b 45 b8          	mov    rax,QWORD PTR [rbp-0x48]
    3313:	48 01 c6             	add    rsi,rax
    3316:	8b 45 dc             	mov    eax,DWORD PTR [rbp-0x24]
    3319:	41 53                	push   r11
    331b:	41 52                	push   r10
    331d:	41 51                	push   r9
    331f:	41 50                	push   r8
    3321:	57                   	push   rdi
    3322:	51                   	push   rcx
    3323:	4d 89 e1             	mov    r9,r12
    3326:	49 89 d8             	mov    r8,rbx
    3329:	89 d1                	mov    ecx,edx
    332b:	48 89 f2             	mov    rdx,rsi
    332e:	89 c6                	mov    esi,eax
    3330:	48 8d 3d 11 37 00 00 	lea    rdi,[rip+0x3711]        # 6a48 <_IO_stdin_used+0xa48>
    3337:	b8 00 00 00 00       	mov    eax,0x0
    333c:	e8 5f ee ff ff       	call   21a0 <printf@plt>
    3341:	48 83 c4 30          	add    rsp,0x30
    3345:	83 45 dc 01          	add    DWORD PTR [rbp-0x24],0x1
    3349:	48 8b 45 c8          	mov    rax,QWORD PTR [rbp-0x38]
    334d:	0f b7 40 3c          	movzx  eax,WORD PTR [rax+0x3c]
    3351:	0f b7 c0             	movzx  eax,ax
    3354:	39 45 dc             	cmp    DWORD PTR [rbp-0x24],eax
    3357:	0f 8c a5 fe ff ff    	jl     3202 <parse_elf64_sect_headers+0x159>
    335d:	48 8d 3d 1c 36 00 00 	lea    rdi,[rip+0x361c]        # 6980 <_IO_stdin_used+0x980>
    3364:	b8 00 00 00 00       	mov    eax,0x0
    3369:	e8 fd f4 ff ff       	call   286b <xlog_info>
    336e:	ba 0a 02 00 00       	mov    edx,0x20a
    3373:	48 8d 35 a6 41 00 00 	lea    rsi,[rip+0x41a6]        # 7520 <__func__.2522>
    337a:	48 8d 3d af 35 00 00 	lea    rdi,[rip+0x35af]        # 6930 <_IO_stdin_used+0x930>
    3381:	b8 00 00 00 00       	mov    eax,0x0
    3386:	e8 e0 f4 ff ff       	call   286b <xlog_info>
    338b:	48 8b 45 e0          	mov    rax,QWORD PTR [rbp-0x20]
    338f:	48 8d 65 f0          	lea    rsp,[rbp-0x10]
    3393:	5b                   	pop    rbx
    3394:	41 5c                	pop    r12
    3396:	5d                   	pop    rbp
    3397:	c3                   	ret    

0000000000003398 <parse_elf64_prog_header>:
    3398:	f3 0f 1e fa          	endbr64 
    339c:	55                   	push   rbp
    339d:	48 89 e5             	mov    rbp,rsp
    33a0:	48 89 7d e8          	mov    QWORD PTR [rbp-0x18],rdi
    33a4:	48 89 75 e0          	mov    QWORD PTR [rbp-0x20],rsi
    33a8:	89 55 dc             	mov    DWORD PTR [rbp-0x24],edx
    33ab:	48 8b 45 e0          	mov    rax,QWORD PTR [rbp-0x20]
    33af:	48 89 45 f8          	mov    QWORD PTR [rbp-0x8],rax
    33b3:	48 8b 45 f8          	mov    rax,QWORD PTR [rbp-0x8]
    33b7:	5d                   	pop    rbp
    33b8:	c3                   	ret    

00000000000033b9 <parse_elf64_prog_headers>:
    33b9:	f3 0f 1e fa          	endbr64 
    33bd:	55                   	push   rbp
    33be:	48 89 e5             	mov    rbp,rsp
    33c1:	48 83 ec 40          	sub    rsp,0x40
    33c5:	48 89 7d d8          	mov    QWORD PTR [rbp-0x28],rdi
    33c9:	48 89 75 d0          	mov    QWORD PTR [rbp-0x30],rsi
    33cd:	48 89 55 c8          	mov    QWORD PTR [rbp-0x38],rdx
    33d1:	ba 2d 02 00 00       	mov    edx,0x22d
    33d6:	48 8d 35 83 41 00 00 	lea    rsi,[rip+0x4183]        # 7560 <__func__.2545>
    33dd:	48 8d 3d 4c 35 00 00 	lea    rdi,[rip+0x354c]        # 6930 <_IO_stdin_used+0x930>
    33e4:	b8 00 00 00 00       	mov    eax,0x0
    33e9:	e8 7d f4 ff ff       	call   286b <xlog_info>
    33ee:	48 8b 45 d8          	mov    rax,QWORD PTR [rbp-0x28]
    33f2:	0f b7 40 38          	movzx  eax,WORD PTR [rax+0x38]
    33f6:	0f b7 c0             	movzx  eax,ax
    33f9:	83 c0 01             	add    eax,0x1
    33fc:	48 98                	cdqe   
    33fe:	be 08 00 00 00       	mov    esi,0x8
    3403:	48 89 c7             	mov    rdi,rax
    3406:	e8 b5 ed ff ff       	call   21c0 <calloc@plt>
    340b:	48 89 45 f0          	mov    QWORD PTR [rbp-0x10],rax
    340f:	c7 45 e8 00 00 00 00 	mov    DWORD PTR [rbp-0x18],0x0
    3416:	eb 75                	jmp    348d <parse_elf64_prog_headers+0xd4>
    3418:	48 8b 45 d8          	mov    rax,QWORD PTR [rbp-0x28]
    341c:	0f b7 40 36          	movzx  eax,WORD PTR [rax+0x36]
    3420:	0f b7 c0             	movzx  eax,ax
    3423:	0f af 45 e8          	imul   eax,DWORD PTR [rbp-0x18]
    3427:	48 63 d0             	movsxd rdx,eax
    342a:	48 8b 45 d0          	mov    rax,QWORD PTR [rbp-0x30]
    342e:	48 8d 0c 02          	lea    rcx,[rdx+rax*1]
    3432:	8b 55 e8             	mov    edx,DWORD PTR [rbp-0x18]
    3435:	48 8b 45 d8          	mov    rax,QWORD PTR [rbp-0x28]
    3439:	48 89 ce             	mov    rsi,rcx
    343c:	48 89 c7             	mov    rdi,rax
    343f:	e8 54 ff ff ff       	call   3398 <parse_elf64_prog_header>
    3444:	48 89 45 f8          	mov    QWORD PTR [rbp-0x8],rax
    3448:	48 83 7d f8 00       	cmp    QWORD PTR [rbp-0x8],0x0
    344d:	75 1f                	jne    346e <parse_elf64_prog_headers+0xb5>
    344f:	48 8d 0d 2a 41 00 00 	lea    rcx,[rip+0x412a]        # 7580 <__PRETTY_FUNCTION__.2549>
    3456:	ba 34 02 00 00       	mov    edx,0x234
    345b:	48 8d 35 ee 34 00 00 	lea    rsi,[rip+0x34ee]        # 6950 <_IO_stdin_used+0x950>
    3462:	48 8d 3d 3c 36 00 00 	lea    rdi,[rip+0x363c]        # 6aa5 <_IO_stdin_used+0xaa5>
    3469:	e8 42 ed ff ff       	call   21b0 <__assert_fail@plt>
    346e:	8b 45 e8             	mov    eax,DWORD PTR [rbp-0x18]
    3471:	48 98                	cdqe   
    3473:	48 8d 14 c5 00 00 00 	lea    rdx,[rax*8+0x0]
    347a:	00 
    347b:	48 8b 45 f0          	mov    rax,QWORD PTR [rbp-0x10]
    347f:	48 01 c2             	add    rdx,rax
    3482:	48 8b 45 f8          	mov    rax,QWORD PTR [rbp-0x8]
    3486:	48 89 02             	mov    QWORD PTR [rdx],rax
    3489:	83 45 e8 01          	add    DWORD PTR [rbp-0x18],0x1
    348d:	48 8b 45 d8          	mov    rax,QWORD PTR [rbp-0x28]
    3491:	0f b7 40 38          	movzx  eax,WORD PTR [rax+0x38]
    3495:	0f b7 c0             	movzx  eax,ax
    3498:	39 45 e8             	cmp    DWORD PTR [rbp-0x18],eax
    349b:	0f 8c 77 ff ff ff    	jl     3418 <parse_elf64_prog_headers+0x5f>
    34a1:	48 8d 3d 68 2b 00 00 	lea    rdi,[rip+0x2b68]        # 6010 <_IO_stdin_used+0x10>
    34a8:	b8 00 00 00 00       	mov    eax,0x0
    34ad:	e8 b9 f3 ff ff       	call   286b <xlog_info>
    34b2:	48 8d 3d 07 36 00 00 	lea    rdi,[rip+0x3607]        # 6ac0 <_IO_stdin_used+0xac0>
    34b9:	b8 00 00 00 00       	mov    eax,0x0
    34be:	e8 a8 f3 ff ff       	call   286b <xlog_info>
    34c3:	48 8d 3d 44 36 00 00 	lea    rdi,[rip+0x3644]        # 6b0e <_IO_stdin_used+0xb0e>
    34ca:	b8 00 00 00 00       	mov    eax,0x0
    34cf:	e8 97 f3 ff ff       	call   286b <xlog_info>
    34d4:	48 8d 3d 4d 36 00 00 	lea    rdi,[rip+0x364d]        # 6b28 <_IO_stdin_used+0xb28>
    34db:	b8 00 00 00 00       	mov    eax,0x0
    34e0:	e8 86 f3 ff ff       	call   286b <xlog_info>
    34e5:	c7 45 ec 00 00 00 00 	mov    DWORD PTR [rbp-0x14],0x0
    34ec:	e9 00 01 00 00       	jmp    35f1 <parse_elf64_prog_headers+0x238>
    34f1:	8b 45 ec             	mov    eax,DWORD PTR [rbp-0x14]
    34f4:	48 98                	cdqe   
    34f6:	48 8d 14 c5 00 00 00 	lea    rdx,[rax*8+0x0]
    34fd:	00 
    34fe:	48 8b 45 f0          	mov    rax,QWORD PTR [rbp-0x10]
    3502:	48 01 d0             	add    rax,rdx
    3505:	48 8b 00             	mov    rax,QWORD PTR [rax]
    3508:	4c 8b 48 30          	mov    r9,QWORD PTR [rax+0x30]
    350c:	8b 45 ec             	mov    eax,DWORD PTR [rbp-0x14]
    350f:	48 98                	cdqe   
    3511:	48 8d 14 c5 00 00 00 	lea    rdx,[rax*8+0x0]
    3518:	00 
    3519:	48 8b 45 f0          	mov    rax,QWORD PTR [rbp-0x10]
    351d:	48 01 d0             	add    rax,rdx
    3520:	48 8b 00             	mov    rax,QWORD PTR [rax]
    3523:	44 8b 40 04          	mov    r8d,DWORD PTR [rax+0x4]
    3527:	8b 45 ec             	mov    eax,DWORD PTR [rbp-0x14]
    352a:	48 98                	cdqe   
    352c:	48 8d 14 c5 00 00 00 	lea    rdx,[rax*8+0x0]
    3533:	00 
    3534:	48 8b 45 f0          	mov    rax,QWORD PTR [rbp-0x10]
    3538:	48 01 d0             	add    rax,rdx
    353b:	48 8b 00             	mov    rax,QWORD PTR [rax]
    353e:	48 8b 78 28          	mov    rdi,QWORD PTR [rax+0x28]
    3542:	8b 45 ec             	mov    eax,DWORD PTR [rbp-0x14]
    3545:	48 98                	cdqe   
    3547:	48 8d 14 c5 00 00 00 	lea    rdx,[rax*8+0x0]
    354e:	00 
    354f:	48 8b 45 f0          	mov    rax,QWORD PTR [rbp-0x10]
    3553:	48 01 d0             	add    rax,rdx
    3556:	48 8b 00             	mov    rax,QWORD PTR [rax]
    3559:	48 8b 70 20          	mov    rsi,QWORD PTR [rax+0x20]
    355d:	8b 45 ec             	mov    eax,DWORD PTR [rbp-0x14]
    3560:	48 98                	cdqe   
    3562:	48 8d 14 c5 00 00 00 	lea    rdx,[rax*8+0x0]
    3569:	00 
    356a:	48 8b 45 f0          	mov    rax,QWORD PTR [rbp-0x10]
    356e:	48 01 d0             	add    rax,rdx
    3571:	48 8b 00             	mov    rax,QWORD PTR [rax]
    3574:	4c 8b 58 18          	mov    r11,QWORD PTR [rax+0x18]
    3578:	8b 45 ec             	mov    eax,DWORD PTR [rbp-0x14]
    357b:	48 98                	cdqe   
    357d:	48 8d 14 c5 00 00 00 	lea    rdx,[rax*8+0x0]
    3584:	00 
    3585:	48 8b 45 f0          	mov    rax,QWORD PTR [rbp-0x10]
    3589:	48 01 d0             	add    rax,rdx
    358c:	48 8b 00             	mov    rax,QWORD PTR [rax]
    358f:	4c 8b 50 10          	mov    r10,QWORD PTR [rax+0x10]
    3593:	8b 45 ec             	mov    eax,DWORD PTR [rbp-0x14]
    3596:	48 98                	cdqe   
    3598:	48 8d 14 c5 00 00 00 	lea    rdx,[rax*8+0x0]
    359f:	00 
    35a0:	48 8b 45 f0          	mov    rax,QWORD PTR [rbp-0x10]
    35a4:	48 01 d0             	add    rax,rdx
    35a7:	48 8b 00             	mov    rax,QWORD PTR [rax]
    35aa:	48 8b 48 08          	mov    rcx,QWORD PTR [rax+0x8]
    35ae:	8b 45 ec             	mov    eax,DWORD PTR [rbp-0x14]
    35b1:	48 98                	cdqe   
    35b3:	48 8d 14 c5 00 00 00 	lea    rdx,[rax*8+0x0]
    35ba:	00 
    35bb:	48 8b 45 f0          	mov    rax,QWORD PTR [rbp-0x10]
    35bf:	48 01 d0             	add    rax,rdx
    35c2:	48 8b 00             	mov    rax,QWORD PTR [rax]
    35c5:	8b 10                	mov    edx,DWORD PTR [rax]
    35c7:	8b 45 ec             	mov    eax,DWORD PTR [rbp-0x14]
    35ca:	41 51                	push   r9
    35cc:	41 50                	push   r8
    35ce:	57                   	push   rdi
    35cf:	56                   	push   rsi
    35d0:	4d 89 d9             	mov    r9,r11
    35d3:	4d 89 d0             	mov    r8,r10
    35d6:	89 c6                	mov    esi,eax
    35d8:	48 8d 3d a1 35 00 00 	lea    rdi,[rip+0x35a1]        # 6b80 <_IO_stdin_used+0xb80>
    35df:	b8 00 00 00 00       	mov    eax,0x0
    35e4:	e8 82 f2 ff ff       	call   286b <xlog_info>
    35e9:	48 83 c4 20          	add    rsp,0x20
    35ed:	83 45 ec 01          	add    DWORD PTR [rbp-0x14],0x1
    35f1:	48 8b 45 d8          	mov    rax,QWORD PTR [rbp-0x28]
    35f5:	0f b7 40 38          	movzx  eax,WORD PTR [rax+0x38]
    35f9:	0f b7 c0             	movzx  eax,ax
    35fc:	39 45 ec             	cmp    DWORD PTR [rbp-0x14],eax
    35ff:	0f 8c ec fe ff ff    	jl     34f1 <parse_elf64_prog_headers+0x138>
    3605:	48 8d 3d b4 34 00 00 	lea    rdi,[rip+0x34b4]        # 6ac0 <_IO_stdin_used+0xac0>
    360c:	b8 00 00 00 00       	mov    eax,0x0
    3611:	e8 55 f2 ff ff       	call   286b <xlog_info>
    3616:	48 8b 45 f0          	mov    rax,QWORD PTR [rbp-0x10]
    361a:	c9                   	leave  
    361b:	c3                   	ret    

000000000000361c <func_sect_note_gnu_prope>:
    361c:	f3 0f 1e fa          	endbr64 
    3620:	55                   	push   rbp
    3621:	48 89 e5             	mov    rbp,rsp
    3624:	48 83 ec 20          	sub    rsp,0x20
    3628:	89 7d fc             	mov    DWORD PTR [rbp-0x4],edi
    362b:	48 89 75 f0          	mov    QWORD PTR [rbp-0x10],rsi
    362f:	48 89 55 e8          	mov    QWORD PTR [rbp-0x18],rdx
    3633:	89 4d f8             	mov    DWORD PTR [rbp-0x8],ecx
    3636:	4c 89 45 e0          	mov    QWORD PTR [rbp-0x20],r8
    363a:	ba b5 02 00 00       	mov    edx,0x2b5
    363f:	48 8d 35 5a 3f 00 00 	lea    rsi,[rip+0x3f5a]        # 75a0 <__func__.2801>
    3646:	48 8d 3d eb 36 00 00 	lea    rdi,[rip+0x36eb]        # 6d38 <_IO_stdin_used+0xd38>
    364d:	b8 00 00 00 00       	mov    eax,0x0
    3652:	e8 14 f2 ff ff       	call   286b <xlog_info>
    3657:	b8 00 00 00 00       	mov    eax,0x0
    365c:	c9                   	leave  
    365d:	c3                   	ret    

000000000000365e <func_sect_note_gnu_build>:
    365e:	f3 0f 1e fa          	endbr64 
    3662:	55                   	push   rbp
    3663:	48 89 e5             	mov    rbp,rsp
    3666:	48 83 ec 20          	sub    rsp,0x20
    366a:	89 7d fc             	mov    DWORD PTR [rbp-0x4],edi
    366d:	48 89 75 f0          	mov    QWORD PTR [rbp-0x10],rsi
    3671:	48 89 55 e8          	mov    QWORD PTR [rbp-0x18],rdx
    3675:	89 4d f8             	mov    DWORD PTR [rbp-0x8],ecx
    3678:	4c 89 45 e0          	mov    QWORD PTR [rbp-0x20],r8
    367c:	ba b6 02 00 00       	mov    edx,0x2b6
    3681:	48 8d 35 38 3f 00 00 	lea    rsi,[rip+0x3f38]        # 75c0 <__func__.2809>
    3688:	48 8d 3d a9 36 00 00 	lea    rdi,[rip+0x36a9]        # 6d38 <_IO_stdin_used+0xd38>
    368f:	b8 00 00 00 00       	mov    eax,0x0
    3694:	e8 d2 f1 ff ff       	call   286b <xlog_info>
    3699:	b8 00 00 00 00       	mov    eax,0x0
    369e:	c9                   	leave  
    369f:	c3                   	ret    

00000000000036a0 <func_sect_note_ABI_tag>:
    36a0:	f3 0f 1e fa          	endbr64 
    36a4:	55                   	push   rbp
    36a5:	48 89 e5             	mov    rbp,rsp
    36a8:	48 83 ec 20          	sub    rsp,0x20
    36ac:	89 7d fc             	mov    DWORD PTR [rbp-0x4],edi
    36af:	48 89 75 f0          	mov    QWORD PTR [rbp-0x10],rsi
    36b3:	48 89 55 e8          	mov    QWORD PTR [rbp-0x18],rdx
    36b7:	89 4d f8             	mov    DWORD PTR [rbp-0x8],ecx
    36ba:	4c 89 45 e0          	mov    QWORD PTR [rbp-0x20],r8
    36be:	ba b7 02 00 00       	mov    edx,0x2b7
    36c3:	48 8d 35 16 3f 00 00 	lea    rsi,[rip+0x3f16]        # 75e0 <__func__.2817>
    36ca:	48 8d 3d 67 36 00 00 	lea    rdi,[rip+0x3667]        # 6d38 <_IO_stdin_used+0xd38>
    36d1:	b8 00 00 00 00       	mov    eax,0x0
    36d6:	e8 90 f1 ff ff       	call   286b <xlog_info>
    36db:	b8 00 00 00 00       	mov    eax,0x0
    36e0:	c9                   	leave  
    36e1:	c3                   	ret    

00000000000036e2 <func_sect_note_gnu_build_id>:
    36e2:	f3 0f 1e fa          	endbr64 
    36e6:	55                   	push   rbp
    36e7:	48 89 e5             	mov    rbp,rsp
    36ea:	48 83 ec 20          	sub    rsp,0x20
    36ee:	89 7d fc             	mov    DWORD PTR [rbp-0x4],edi
    36f1:	48 89 75 f0          	mov    QWORD PTR [rbp-0x10],rsi
    36f5:	48 89 55 e8          	mov    QWORD PTR [rbp-0x18],rdx
    36f9:	89 4d f8             	mov    DWORD PTR [rbp-0x8],ecx
    36fc:	4c 89 45 e0          	mov    QWORD PTR [rbp-0x20],r8
    3700:	ba b8 02 00 00       	mov    edx,0x2b8
    3705:	48 8d 35 f4 3e 00 00 	lea    rsi,[rip+0x3ef4]        # 7600 <__func__.2825>
    370c:	48 8d 3d 25 36 00 00 	lea    rdi,[rip+0x3625]        # 6d38 <_IO_stdin_used+0xd38>
    3713:	b8 00 00 00 00       	mov    eax,0x0
    3718:	e8 4e f1 ff ff       	call   286b <xlog_info>
    371d:	b8 00 00 00 00       	mov    eax,0x0
    3722:	c9                   	leave  
    3723:	c3                   	ret    

0000000000003724 <func_sect_gnu_hash>:
    3724:	f3 0f 1e fa          	endbr64 
    3728:	55                   	push   rbp
    3729:	48 89 e5             	mov    rbp,rsp
    372c:	48 83 ec 20          	sub    rsp,0x20
    3730:	89 7d fc             	mov    DWORD PTR [rbp-0x4],edi
    3733:	48 89 75 f0          	mov    QWORD PTR [rbp-0x10],rsi
    3737:	48 89 55 e8          	mov    QWORD PTR [rbp-0x18],rdx
    373b:	89 4d f8             	mov    DWORD PTR [rbp-0x8],ecx
    373e:	4c 89 45 e0          	mov    QWORD PTR [rbp-0x20],r8
    3742:	ba b9 02 00 00       	mov    edx,0x2b9
    3747:	48 8d 35 d2 3e 00 00 	lea    rsi,[rip+0x3ed2]        # 7620 <__func__.2833>
    374e:	48 8d 3d e3 35 00 00 	lea    rdi,[rip+0x35e3]        # 6d38 <_IO_stdin_used+0xd38>
    3755:	b8 00 00 00 00       	mov    eax,0x0
    375a:	e8 0c f1 ff ff       	call   286b <xlog_info>
    375f:	b8 00 00 00 00       	mov    eax,0x0
    3764:	c9                   	leave  
    3765:	c3                   	ret    

0000000000003766 <func_sect_gnu_version>:
    3766:	f3 0f 1e fa          	endbr64 
    376a:	55                   	push   rbp
    376b:	48 89 e5             	mov    rbp,rsp
    376e:	48 83 ec 20          	sub    rsp,0x20
    3772:	89 7d fc             	mov    DWORD PTR [rbp-0x4],edi
    3775:	48 89 75 f0          	mov    QWORD PTR [rbp-0x10],rsi
    3779:	48 89 55 e8          	mov    QWORD PTR [rbp-0x18],rdx
    377d:	89 4d f8             	mov    DWORD PTR [rbp-0x8],ecx
    3780:	4c 89 45 e0          	mov    QWORD PTR [rbp-0x20],r8
    3784:	ba bc 02 00 00       	mov    edx,0x2bc
    3789:	48 8d 35 b0 3e 00 00 	lea    rsi,[rip+0x3eb0]        # 7640 <__func__.2841>
    3790:	48 8d 3d a1 35 00 00 	lea    rdi,[rip+0x35a1]        # 6d38 <_IO_stdin_used+0xd38>
    3797:	b8 00 00 00 00       	mov    eax,0x0
    379c:	e8 ca f0 ff ff       	call   286b <xlog_info>
    37a1:	b8 00 00 00 00       	mov    eax,0x0
    37a6:	c9                   	leave  
    37a7:	c3                   	ret    

00000000000037a8 <func_sect_gnu_version_r>:
    37a8:	f3 0f 1e fa          	endbr64 
    37ac:	55                   	push   rbp
    37ad:	48 89 e5             	mov    rbp,rsp
    37b0:	48 83 ec 20          	sub    rsp,0x20
    37b4:	89 7d fc             	mov    DWORD PTR [rbp-0x4],edi
    37b7:	48 89 75 f0          	mov    QWORD PTR [rbp-0x10],rsi
    37bb:	48 89 55 e8          	mov    QWORD PTR [rbp-0x18],rdx
    37bf:	89 4d f8             	mov    DWORD PTR [rbp-0x8],ecx
    37c2:	4c 89 45 e0          	mov    QWORD PTR [rbp-0x20],r8
    37c6:	ba bd 02 00 00       	mov    edx,0x2bd
    37cb:	48 8d 35 8e 3e 00 00 	lea    rsi,[rip+0x3e8e]        # 7660 <__func__.2849>
    37d2:	48 8d 3d 5f 35 00 00 	lea    rdi,[rip+0x355f]        # 6d38 <_IO_stdin_used+0xd38>
    37d9:	b8 00 00 00 00       	mov    eax,0x0
    37de:	e8 88 f0 ff ff       	call   286b <xlog_info>
    37e3:	b8 00 00 00 00       	mov    eax,0x0
    37e8:	c9                   	leave  
    37e9:	c3                   	ret    

00000000000037ea <func_sect_eh_frame_hdr>:
    37ea:	f3 0f 1e fa          	endbr64 
    37ee:	55                   	push   rbp
    37ef:	48 89 e5             	mov    rbp,rsp
    37f2:	48 83 ec 20          	sub    rsp,0x20
    37f6:	89 7d fc             	mov    DWORD PTR [rbp-0x4],edi
    37f9:	48 89 75 f0          	mov    QWORD PTR [rbp-0x10],rsi
    37fd:	48 89 55 e8          	mov    QWORD PTR [rbp-0x18],rdx
    3801:	89 4d f8             	mov    DWORD PTR [rbp-0x8],ecx
    3804:	4c 89 45 e0          	mov    QWORD PTR [rbp-0x20],r8
    3808:	ba c7 02 00 00       	mov    edx,0x2c7
    380d:	48 8d 35 6c 3e 00 00 	lea    rsi,[rip+0x3e6c]        # 7680 <__func__.2857>
    3814:	48 8d 3d 1d 35 00 00 	lea    rdi,[rip+0x351d]        # 6d38 <_IO_stdin_used+0xd38>
    381b:	b8 00 00 00 00       	mov    eax,0x0
    3820:	e8 46 f0 ff ff       	call   286b <xlog_info>
    3825:	b8 00 00 00 00       	mov    eax,0x0
    382a:	c9                   	leave  
    382b:	c3                   	ret    

000000000000382c <func_sect_eh_frame>:
    382c:	f3 0f 1e fa          	endbr64 
    3830:	55                   	push   rbp
    3831:	48 89 e5             	mov    rbp,rsp
    3834:	48 83 ec 20          	sub    rsp,0x20
    3838:	89 7d fc             	mov    DWORD PTR [rbp-0x4],edi
    383b:	48 89 75 f0          	mov    QWORD PTR [rbp-0x10],rsi
    383f:	48 89 55 e8          	mov    QWORD PTR [rbp-0x18],rdx
    3843:	89 4d f8             	mov    DWORD PTR [rbp-0x8],ecx
    3846:	4c 89 45 e0          	mov    QWORD PTR [rbp-0x20],r8
    384a:	ba c8 02 00 00       	mov    edx,0x2c8
    384f:	48 8d 35 4a 3e 00 00 	lea    rsi,[rip+0x3e4a]        # 76a0 <__func__.2865>
    3856:	48 8d 3d db 34 00 00 	lea    rdi,[rip+0x34db]        # 6d38 <_IO_stdin_used+0xd38>
    385d:	b8 00 00 00 00       	mov    eax,0x0
    3862:	e8 04 f0 ff ff       	call   286b <xlog_info>
    3867:	b8 00 00 00 00       	mov    eax,0x0
    386c:	c9                   	leave  
    386d:	c3                   	ret    

000000000000386e <func_sect_debug_aranges>:
    386e:	f3 0f 1e fa          	endbr64 
    3872:	55                   	push   rbp
    3873:	48 89 e5             	mov    rbp,rsp
    3876:	48 83 ec 20          	sub    rsp,0x20
    387a:	89 7d fc             	mov    DWORD PTR [rbp-0x4],edi
    387d:	48 89 75 f0          	mov    QWORD PTR [rbp-0x10],rsi
    3881:	48 89 55 e8          	mov    QWORD PTR [rbp-0x18],rdx
    3885:	89 4d f8             	mov    DWORD PTR [rbp-0x8],ecx
    3888:	4c 89 45 e0          	mov    QWORD PTR [rbp-0x20],r8
    388c:	ba d1 02 00 00       	mov    edx,0x2d1
    3891:	48 8d 35 28 3e 00 00 	lea    rsi,[rip+0x3e28]        # 76c0 <__func__.2873>
    3898:	48 8d 3d 99 34 00 00 	lea    rdi,[rip+0x3499]        # 6d38 <_IO_stdin_used+0xd38>
    389f:	b8 00 00 00 00       	mov    eax,0x0
    38a4:	e8 c2 ef ff ff       	call   286b <xlog_info>
    38a9:	b8 00 00 00 00       	mov    eax,0x0
    38ae:	c9                   	leave  
    38af:	c3                   	ret    

00000000000038b0 <func_sect_debug_info>:
    38b0:	f3 0f 1e fa          	endbr64 
    38b4:	55                   	push   rbp
    38b5:	48 89 e5             	mov    rbp,rsp
    38b8:	48 83 ec 20          	sub    rsp,0x20
    38bc:	89 7d fc             	mov    DWORD PTR [rbp-0x4],edi
    38bf:	48 89 75 f0          	mov    QWORD PTR [rbp-0x10],rsi
    38c3:	48 89 55 e8          	mov    QWORD PTR [rbp-0x18],rdx
    38c7:	89 4d f8             	mov    DWORD PTR [rbp-0x8],ecx
    38ca:	4c 89 45 e0          	mov    QWORD PTR [rbp-0x20],r8
    38ce:	ba d2 02 00 00       	mov    edx,0x2d2
    38d3:	48 8d 35 06 3e 00 00 	lea    rsi,[rip+0x3e06]        # 76e0 <__func__.2881>
    38da:	48 8d 3d 57 34 00 00 	lea    rdi,[rip+0x3457]        # 6d38 <_IO_stdin_used+0xd38>
    38e1:	b8 00 00 00 00       	mov    eax,0x0
    38e6:	e8 80 ef ff ff       	call   286b <xlog_info>
    38eb:	b8 00 00 00 00       	mov    eax,0x0
    38f0:	c9                   	leave  
    38f1:	c3                   	ret    

00000000000038f2 <func_sect_debug_abbrev>:
    38f2:	f3 0f 1e fa          	endbr64 
    38f6:	55                   	push   rbp
    38f7:	48 89 e5             	mov    rbp,rsp
    38fa:	48 83 ec 20          	sub    rsp,0x20
    38fe:	89 7d fc             	mov    DWORD PTR [rbp-0x4],edi
    3901:	48 89 75 f0          	mov    QWORD PTR [rbp-0x10],rsi
    3905:	48 89 55 e8          	mov    QWORD PTR [rbp-0x18],rdx
    3909:	89 4d f8             	mov    DWORD PTR [rbp-0x8],ecx
    390c:	4c 89 45 e0          	mov    QWORD PTR [rbp-0x20],r8
    3910:	ba d3 02 00 00       	mov    edx,0x2d3
    3915:	48 8d 35 e4 3d 00 00 	lea    rsi,[rip+0x3de4]        # 7700 <__func__.2889>
    391c:	48 8d 3d 15 34 00 00 	lea    rdi,[rip+0x3415]        # 6d38 <_IO_stdin_used+0xd38>
    3923:	b8 00 00 00 00       	mov    eax,0x0
    3928:	e8 3e ef ff ff       	call   286b <xlog_info>
    392d:	b8 00 00 00 00       	mov    eax,0x0
    3932:	c9                   	leave  
    3933:	c3                   	ret    

0000000000003934 <func_sect_debug_line>:
    3934:	f3 0f 1e fa          	endbr64 
    3938:	55                   	push   rbp
    3939:	48 89 e5             	mov    rbp,rsp
    393c:	48 83 ec 20          	sub    rsp,0x20
    3940:	89 7d fc             	mov    DWORD PTR [rbp-0x4],edi
    3943:	48 89 75 f0          	mov    QWORD PTR [rbp-0x10],rsi
    3947:	48 89 55 e8          	mov    QWORD PTR [rbp-0x18],rdx
    394b:	89 4d f8             	mov    DWORD PTR [rbp-0x8],ecx
    394e:	4c 89 45 e0          	mov    QWORD PTR [rbp-0x20],r8
    3952:	ba d4 02 00 00       	mov    edx,0x2d4
    3957:	48 8d 35 c2 3d 00 00 	lea    rsi,[rip+0x3dc2]        # 7720 <__func__.2897>
    395e:	48 8d 3d d3 33 00 00 	lea    rdi,[rip+0x33d3]        # 6d38 <_IO_stdin_used+0xd38>
    3965:	b8 00 00 00 00       	mov    eax,0x0
    396a:	e8 fc ee ff ff       	call   286b <xlog_info>
    396f:	b8 00 00 00 00       	mov    eax,0x0
    3974:	c9                   	leave  
    3975:	c3                   	ret    

0000000000003976 <func_sect_interp>:
    3976:	f3 0f 1e fa          	endbr64 
    397a:	55                   	push   rbp
    397b:	48 89 e5             	mov    rbp,rsp
    397e:	48 83 ec 30          	sub    rsp,0x30
    3982:	89 7d ec             	mov    DWORD PTR [rbp-0x14],edi
    3985:	48 89 75 e0          	mov    QWORD PTR [rbp-0x20],rsi
    3989:	48 89 55 d8          	mov    QWORD PTR [rbp-0x28],rdx
    398d:	89 4d e8             	mov    DWORD PTR [rbp-0x18],ecx
    3990:	4c 89 45 d0          	mov    QWORD PTR [rbp-0x30],r8
    3994:	ba df 02 00 00       	mov    edx,0x2df
    3999:	48 8d 35 a0 3d 00 00 	lea    rsi,[rip+0x3da0]        # 7740 <__func__.2905>
    39a0:	48 8d 3d 91 33 00 00 	lea    rdi,[rip+0x3391]        # 6d38 <_IO_stdin_used+0xd38>
    39a7:	b8 00 00 00 00       	mov    eax,0x0
    39ac:	e8 ba ee ff ff       	call   286b <xlog_info>
    39b1:	48 8b 55 d0          	mov    rdx,QWORD PTR [rbp-0x30]
    39b5:	8b 45 ec             	mov    eax,DWORD PTR [rbp-0x14]
    39b8:	48 89 d6             	mov    rsi,rdx
    39bb:	89 c7                	mov    edi,eax
    39bd:	e8 82 f1 ff ff       	call   2b44 <PrtSectHeader>
    39c2:	8b 45 e8             	mov    eax,DWORD PTR [rbp-0x18]
    39c5:	48 63 d0             	movsxd rdx,eax
    39c8:	48 8b 45 d8          	mov    rax,QWORD PTR [rbp-0x28]
    39cc:	48 89 d6             	mov    rsi,rdx
    39cf:	48 89 c7             	mov    rdi,rax
    39d2:	e8 d9 ea ff ff       	call   24b0 <xlog_hexdump>
    39d7:	48 8b 45 d0          	mov    rax,QWORD PTR [rbp-0x30]
    39db:	8b 40 04             	mov    eax,DWORD PTR [rax+0x4]
    39de:	83 f8 01             	cmp    eax,0x1
    39e1:	0f 85 8a 00 00 00    	jne    3a71 <func_sect_interp+0xfb>
    39e7:	48 8d 3d 72 33 00 00 	lea    rdi,[rip+0x3372]        # 6d60 <_IO_stdin_used+0xd60>
    39ee:	b8 00 00 00 00       	mov    eax,0x0
    39f3:	e8 73 ee ff ff       	call   286b <xlog_info>
    39f8:	48 8d 3d a9 33 00 00 	lea    rdi,[rip+0x33a9]        # 6da8 <_IO_stdin_used+0xda8>
    39ff:	b8 00 00 00 00       	mov    eax,0x0
    3a04:	e8 62 ee ff ff       	call   286b <xlog_info>
    3a09:	c7 45 fc 00 00 00 00 	mov    DWORD PTR [rbp-0x4],0x0
    3a10:	eb 2a                	jmp    3a3c <func_sect_interp+0xc6>
    3a12:	8b 45 fc             	mov    eax,DWORD PTR [rbp-0x4]
    3a15:	48 63 d0             	movsxd rdx,eax
    3a18:	48 8b 45 d8          	mov    rax,QWORD PTR [rbp-0x28]
    3a1c:	48 01 d0             	add    rax,rdx
    3a1f:	0f b6 00             	movzx  eax,BYTE PTR [rax]
    3a22:	0f b6 c0             	movzx  eax,al
    3a25:	89 c6                	mov    esi,eax
    3a27:	48 8d 3d c1 26 00 00 	lea    rdi,[rip+0x26c1]        # 60ef <_IO_stdin_used+0xef>
    3a2e:	b8 00 00 00 00       	mov    eax,0x0
    3a33:	e8 33 ee ff ff       	call   286b <xlog_info>
    3a38:	83 45 fc 01          	add    DWORD PTR [rbp-0x4],0x1
    3a3c:	8b 45 fc             	mov    eax,DWORD PTR [rbp-0x4]
    3a3f:	48 63 d0             	movsxd rdx,eax
    3a42:	48 8b 45 d0          	mov    rax,QWORD PTR [rbp-0x30]
    3a46:	48 8b 40 20          	mov    rax,QWORD PTR [rax+0x20]
    3a4a:	48 39 c2             	cmp    rdx,rax
    3a4d:	72 c3                	jb     3a12 <func_sect_interp+0x9c>
    3a4f:	48 8d 3d ba 25 00 00 	lea    rdi,[rip+0x25ba]        # 6010 <_IO_stdin_used+0x10>
    3a56:	b8 00 00 00 00       	mov    eax,0x0
    3a5b:	e8 0b ee ff ff       	call   286b <xlog_info>
    3a60:	48 8d 3d 49 33 00 00 	lea    rdi,[rip+0x3349]        # 6db0 <_IO_stdin_used+0xdb0>
    3a67:	b8 00 00 00 00       	mov    eax,0x0
    3a6c:	e8 fa ed ff ff       	call   286b <xlog_info>
    3a71:	b8 00 00 00 00       	mov    eax,0x0
    3a76:	c9                   	leave  
    3a77:	c3                   	ret    

0000000000003a78 <func_sect_dynsym>:
    3a78:	f3 0f 1e fa          	endbr64 
    3a7c:	55                   	push   rbp
    3a7d:	48 89 e5             	mov    rbp,rsp
    3a80:	48 83 ec 40          	sub    rsp,0x40
    3a84:	89 7d dc             	mov    DWORD PTR [rbp-0x24],edi
    3a87:	48 89 75 d0          	mov    QWORD PTR [rbp-0x30],rsi
    3a8b:	48 89 55 c8          	mov    QWORD PTR [rbp-0x38],rdx
    3a8f:	89 4d d8             	mov    DWORD PTR [rbp-0x28],ecx
    3a92:	4c 89 45 c0          	mov    QWORD PTR [rbp-0x40],r8
    3a96:	ba fe 02 00 00       	mov    edx,0x2fe
    3a9b:	48 8d 35 be 3c 00 00 	lea    rsi,[rip+0x3cbe]        # 7760 <__func__.2917>
    3aa2:	48 8d 3d 8f 32 00 00 	lea    rdi,[rip+0x328f]        # 6d38 <_IO_stdin_used+0xd38>
    3aa9:	b8 00 00 00 00       	mov    eax,0x0
    3aae:	e8 b8 ed ff ff       	call   286b <xlog_info>
    3ab3:	48 8b 55 c0          	mov    rdx,QWORD PTR [rbp-0x40]
    3ab7:	8b 45 dc             	mov    eax,DWORD PTR [rbp-0x24]
    3aba:	48 89 d6             	mov    rsi,rdx
    3abd:	89 c7                	mov    edi,eax
    3abf:	e8 80 f0 ff ff       	call   2b44 <PrtSectHeader>
    3ac4:	8b 45 d8             	mov    eax,DWORD PTR [rbp-0x28]
    3ac7:	48 63 d0             	movsxd rdx,eax
    3aca:	48 8b 45 c8          	mov    rax,QWORD PTR [rbp-0x38]
    3ace:	48 89 d6             	mov    rsi,rdx
    3ad1:	48 89 c7             	mov    rdi,rax
    3ad4:	e8 d7 e9 ff ff       	call   24b0 <xlog_hexdump>
    3ad9:	48 8b 45 c8          	mov    rax,QWORD PTR [rbp-0x38]
    3add:	48 89 45 e8          	mov    QWORD PTR [rbp-0x18],rax
    3ae1:	48 8b 45 c0          	mov    rax,QWORD PTR [rbp-0x40]
    3ae5:	48 8b 40 20          	mov    rax,QWORD PTR [rax+0x20]
    3ae9:	48 8b 55 c0          	mov    rdx,QWORD PTR [rbp-0x40]
    3aed:	48 8b 4a 38          	mov    rcx,QWORD PTR [rdx+0x38]
    3af1:	ba 00 00 00 00       	mov    edx,0x0
    3af6:	48 f7 f1             	div    rcx
    3af9:	48 83 c0 01          	add    rax,0x1
    3afd:	48 c1 e0 03          	shl    rax,0x3
    3b01:	48 89 c7             	mov    rdi,rax
    3b04:	e8 e7 e6 ff ff       	call   21f0 <malloc@plt>
    3b09:	48 89 45 f0          	mov    QWORD PTR [rbp-0x10],rax
    3b0d:	48 8b 45 c0          	mov    rax,QWORD PTR [rbp-0x40]
    3b11:	48 8b 40 20          	mov    rax,QWORD PTR [rax+0x20]
    3b15:	48 8b 55 c0          	mov    rdx,QWORD PTR [rbp-0x40]
    3b19:	48 8b 4a 38          	mov    rcx,QWORD PTR [rdx+0x38]
    3b1d:	ba 00 00 00 00       	mov    edx,0x0
    3b22:	48 f7 f1             	div    rcx
    3b25:	89 c6                	mov    esi,eax
    3b27:	48 8d 3d ca 32 00 00 	lea    rdi,[rip+0x32ca]        # 6df8 <_IO_stdin_used+0xdf8>
    3b2e:	b8 00 00 00 00       	mov    eax,0x0
    3b33:	e8 33 ed ff ff       	call   286b <xlog_info>
    3b38:	48 8d 3d f1 32 00 00 	lea    rdi,[rip+0x32f1]        # 6e30 <_IO_stdin_used+0xe30>
    3b3f:	b8 00 00 00 00       	mov    eax,0x0
    3b44:	e8 22 ed ff ff       	call   286b <xlog_info>
    3b49:	c7 45 e4 00 00 00 00 	mov    DWORD PTR [rbp-0x1c],0x0
    3b50:	e9 dc 00 00 00       	jmp    3c31 <func_sect_dynsym+0x1b9>
    3b55:	bf 18 00 00 00       	mov    edi,0x18
    3b5a:	e8 91 e6 ff ff       	call   21f0 <malloc@plt>
    3b5f:	48 89 45 f8          	mov    QWORD PTR [rbp-0x8],rax
    3b63:	8b 45 e4             	mov    eax,DWORD PTR [rbp-0x1c]
    3b66:	48 63 d0             	movsxd rdx,eax
    3b69:	48 89 d0             	mov    rax,rdx
    3b6c:	48 01 c0             	add    rax,rax
    3b6f:	48 01 d0             	add    rax,rdx
    3b72:	48 c1 e0 03          	shl    rax,0x3
    3b76:	48 89 c2             	mov    rdx,rax
    3b79:	48 8b 45 e8          	mov    rax,QWORD PTR [rbp-0x18]
    3b7d:	48 8d 34 02          	lea    rsi,[rdx+rax*1]
    3b81:	48 8b 4d f8          	mov    rcx,QWORD PTR [rbp-0x8]
    3b85:	48 8b 06             	mov    rax,QWORD PTR [rsi]
    3b88:	48 8b 56 08          	mov    rdx,QWORD PTR [rsi+0x8]
    3b8c:	48 89 01             	mov    QWORD PTR [rcx],rax
    3b8f:	48 89 51 08          	mov    QWORD PTR [rcx+0x8],rdx
    3b93:	48 8b 46 10          	mov    rax,QWORD PTR [rsi+0x10]
    3b97:	48 89 41 10          	mov    QWORD PTR [rcx+0x10],rax
    3b9b:	48 8b 45 f8          	mov    rax,QWORD PTR [rbp-0x8]
    3b9f:	8b 38                	mov    edi,DWORD PTR [rax]
    3ba1:	48 8b 45 f8          	mov    rax,QWORD PTR [rbp-0x8]
    3ba5:	0f b7 40 06          	movzx  eax,WORD PTR [rax+0x6]
    3ba9:	0f b7 f0             	movzx  esi,ax
    3bac:	48 8b 45 f8          	mov    rax,QWORD PTR [rbp-0x8]
    3bb0:	0f b6 40 05          	movzx  eax,BYTE PTR [rax+0x5]
    3bb4:	0f b6 c0             	movzx  eax,al
    3bb7:	83 e0 03             	and    eax,0x3
    3bba:	41 89 c0             	mov    r8d,eax
    3bbd:	48 8b 45 f8          	mov    rax,QWORD PTR [rbp-0x8]
    3bc1:	0f b6 40 04          	movzx  eax,BYTE PTR [rax+0x4]
    3bc5:	c0 e8 04             	shr    al,0x4
    3bc8:	44 0f b6 c8          	movzx  r9d,al
    3bcc:	48 8b 45 f8          	mov    rax,QWORD PTR [rbp-0x8]
    3bd0:	0f b6 40 04          	movzx  eax,BYTE PTR [rax+0x4]
    3bd4:	0f b6 c0             	movzx  eax,al
    3bd7:	83 e0 0f             	and    eax,0xf
    3bda:	41 89 c2             	mov    r10d,eax
    3bdd:	48 8b 45 f8          	mov    rax,QWORD PTR [rbp-0x8]
    3be1:	48 8b 48 10          	mov    rcx,QWORD PTR [rax+0x10]
    3be5:	48 8b 45 f8          	mov    rax,QWORD PTR [rbp-0x8]
    3be9:	48 8b 50 08          	mov    rdx,QWORD PTR [rax+0x8]
    3bed:	8b 45 e4             	mov    eax,DWORD PTR [rbp-0x1c]
    3bf0:	48 83 ec 08          	sub    rsp,0x8
    3bf4:	57                   	push   rdi
    3bf5:	56                   	push   rsi
    3bf6:	41 50                	push   r8
    3bf8:	45 89 d0             	mov    r8d,r10d
    3bfb:	89 c6                	mov    esi,eax
    3bfd:	48 8d 3d 84 32 00 00 	lea    rdi,[rip+0x3284]        # 6e88 <_IO_stdin_used+0xe88>
    3c04:	b8 00 00 00 00       	mov    eax,0x0
    3c09:	e8 5d ec ff ff       	call   286b <xlog_info>
    3c0e:	48 83 c4 20          	add    rsp,0x20
    3c12:	8b 45 e4             	mov    eax,DWORD PTR [rbp-0x1c]
    3c15:	48 98                	cdqe   
    3c17:	48 8d 14 c5 00 00 00 	lea    rdx,[rax*8+0x0]
    3c1e:	00 
    3c1f:	48 8b 45 f0          	mov    rax,QWORD PTR [rbp-0x10]
    3c23:	48 01 c2             	add    rdx,rax
    3c26:	48 8b 45 f8          	mov    rax,QWORD PTR [rbp-0x8]
    3c2a:	48 89 02             	mov    QWORD PTR [rdx],rax
    3c2d:	83 45 e4 01          	add    DWORD PTR [rbp-0x1c],0x1
    3c31:	8b 45 e4             	mov    eax,DWORD PTR [rbp-0x1c]
    3c34:	48 63 c8             	movsxd rcx,eax
    3c37:	48 8b 45 c0          	mov    rax,QWORD PTR [rbp-0x40]
    3c3b:	48 8b 40 20          	mov    rax,QWORD PTR [rax+0x20]
    3c3f:	48 8b 55 c0          	mov    rdx,QWORD PTR [rbp-0x40]
    3c43:	48 8b 72 38          	mov    rsi,QWORD PTR [rdx+0x38]
    3c47:	ba 00 00 00 00       	mov    edx,0x0
    3c4c:	48 f7 f6             	div    rsi
    3c4f:	48 39 c1             	cmp    rcx,rax
    3c52:	0f 82 fd fe ff ff    	jb     3b55 <func_sect_dynsym+0xdd>
    3c58:	b8 00 00 00 00       	mov    eax,0x0
    3c5d:	c9                   	leave  
    3c5e:	c3                   	ret    

0000000000003c5f <DumpPtr2Str>:
    3c5f:	f3 0f 1e fa          	endbr64 
    3c63:	55                   	push   rbp
    3c64:	48 89 e5             	mov    rbp,rsp
    3c67:	48 83 ec 20          	sub    rsp,0x20
    3c6b:	48 89 7d e8          	mov    QWORD PTR [rbp-0x18],rdi
    3c6f:	89 75 e4             	mov    DWORD PTR [rbp-0x1c],esi
    3c72:	89 55 e0             	mov    DWORD PTR [rbp-0x20],edx
    3c75:	48 8d 3d 5c 32 00 00 	lea    rdi,[rip+0x325c]        # 6ed8 <_IO_stdin_used+0xed8>
    3c7c:	b8 00 00 00 00       	mov    eax,0x0
    3c81:	e8 e5 eb ff ff       	call   286b <xlog_info>
    3c86:	c7 45 f8 00 00 00 00 	mov    DWORD PTR [rbp-0x8],0x0
    3c8d:	c7 45 fc 00 00 00 00 	mov    DWORD PTR [rbp-0x4],0x0
    3c94:	eb 60                	jmp    3cf6 <DumpPtr2Str+0x97>
    3c96:	8b 45 fc             	mov    eax,DWORD PTR [rbp-0x4]
    3c99:	8d 50 01             	lea    edx,[rax+0x1]
    3c9c:	89 55 fc             	mov    DWORD PTR [rbp-0x4],edx
    3c9f:	39 45 e4             	cmp    DWORD PTR [rbp-0x1c],eax
    3ca2:	76 64                	jbe    3d08 <DumpPtr2Str+0xa9>
    3ca4:	48 83 45 e8 01       	add    QWORD PTR [rbp-0x18],0x1
    3ca9:	48 8b 45 e8          	mov    rax,QWORD PTR [rbp-0x18]
    3cad:	0f b6 00             	movzx  eax,BYTE PTR [rax]
    3cb0:	84 c0                	test   al,al
    3cb2:	74 e2                	je     3c96 <DumpPtr2Str+0x37>
    3cb4:	48 8b 4d e8          	mov    rcx,QWORD PTR [rbp-0x18]
    3cb8:	48 8b 55 e8          	mov    rdx,QWORD PTR [rbp-0x18]
    3cbc:	8b 45 f8             	mov    eax,DWORD PTR [rbp-0x8]
    3cbf:	89 c6                	mov    esi,eax
    3cc1:	48 8d 3d 58 32 00 00 	lea    rdi,[rip+0x3258]        # 6f20 <_IO_stdin_used+0xf20>
    3cc8:	b8 00 00 00 00       	mov    eax,0x0
    3ccd:	e8 99 eb ff ff       	call   286b <xlog_info>
    3cd2:	eb 13                	jmp    3ce7 <DumpPtr2Str+0x88>
    3cd4:	8b 45 fc             	mov    eax,DWORD PTR [rbp-0x4]
    3cd7:	8d 50 01             	lea    edx,[rax+0x1]
    3cda:	89 55 fc             	mov    DWORD PTR [rbp-0x4],edx
    3cdd:	39 45 e4             	cmp    DWORD PTR [rbp-0x1c],eax
    3ce0:	76 29                	jbe    3d0b <DumpPtr2Str+0xac>
    3ce2:	48 83 45 e8 01       	add    QWORD PTR [rbp-0x18],0x1
    3ce7:	48 8b 45 e8          	mov    rax,QWORD PTR [rbp-0x18]
    3ceb:	0f b6 00             	movzx  eax,BYTE PTR [rax]
    3cee:	84 c0                	test   al,al
    3cf0:	75 e2                	jne    3cd4 <DumpPtr2Str+0x75>
    3cf2:	83 45 f8 01          	add    DWORD PTR [rbp-0x8],0x1
    3cf6:	8b 45 f8             	mov    eax,DWORD PTR [rbp-0x8]
    3cf9:	3b 45 e0             	cmp    eax,DWORD PTR [rbp-0x20]
    3cfc:	73 10                	jae    3d0e <DumpPtr2Str+0xaf>
    3cfe:	8b 45 fc             	mov    eax,DWORD PTR [rbp-0x4]
    3d01:	3b 45 e4             	cmp    eax,DWORD PTR [rbp-0x1c]
    3d04:	72 a3                	jb     3ca9 <DumpPtr2Str+0x4a>
    3d06:	eb 06                	jmp    3d0e <DumpPtr2Str+0xaf>
    3d08:	90                   	nop
    3d09:	eb 04                	jmp    3d0f <DumpPtr2Str+0xb0>
    3d0b:	90                   	nop
    3d0c:	eb 01                	jmp    3d0f <DumpPtr2Str+0xb0>
    3d0e:	90                   	nop
    3d0f:	48 8d 3d c2 31 00 00 	lea    rdi,[rip+0x31c2]        # 6ed8 <_IO_stdin_used+0xed8>
    3d16:	b8 00 00 00 00       	mov    eax,0x0
    3d1b:	e8 4b eb ff ff       	call   286b <xlog_info>
    3d20:	48 8d 3d e9 22 00 00 	lea    rdi,[rip+0x22e9]        # 6010 <_IO_stdin_used+0x10>
    3d27:	b8 00 00 00 00       	mov    eax,0x0
    3d2c:	e8 3a eb ff ff       	call   286b <xlog_info>
    3d31:	90                   	nop
    3d32:	c9                   	leave  
    3d33:	c3                   	ret    

0000000000003d34 <func_sect_dynstr>:
    3d34:	f3 0f 1e fa          	endbr64 
    3d38:	55                   	push   rbp
    3d39:	48 89 e5             	mov    rbp,rsp
    3d3c:	48 83 ec 20          	sub    rsp,0x20
    3d40:	89 7d fc             	mov    DWORD PTR [rbp-0x4],edi
    3d43:	48 89 75 f0          	mov    QWORD PTR [rbp-0x10],rsi
    3d47:	48 89 55 e8          	mov    QWORD PTR [rbp-0x18],rdx
    3d4b:	89 4d f8             	mov    DWORD PTR [rbp-0x8],ecx
    3d4e:	4c 89 45 e0          	mov    QWORD PTR [rbp-0x20],r8
    3d52:	ba 45 03 00 00       	mov    edx,0x345
    3d57:	48 8d 35 22 3a 00 00 	lea    rsi,[rip+0x3a22]        # 7780 <__func__.2949>
    3d5e:	48 8d 3d d3 2f 00 00 	lea    rdi,[rip+0x2fd3]        # 6d38 <_IO_stdin_used+0xd38>
    3d65:	b8 00 00 00 00       	mov    eax,0x0
    3d6a:	e8 fc ea ff ff       	call   286b <xlog_info>
    3d6f:	48 8b 55 e0          	mov    rdx,QWORD PTR [rbp-0x20]
    3d73:	8b 45 fc             	mov    eax,DWORD PTR [rbp-0x4]
    3d76:	48 89 d6             	mov    rsi,rdx
    3d79:	89 c7                	mov    edi,eax
    3d7b:	e8 c4 ed ff ff       	call   2b44 <PrtSectHeader>
    3d80:	8b 45 f8             	mov    eax,DWORD PTR [rbp-0x8]
    3d83:	48 63 d0             	movsxd rdx,eax
    3d86:	48 8b 45 e8          	mov    rax,QWORD PTR [rbp-0x18]
    3d8a:	48 89 d6             	mov    rsi,rdx
    3d8d:	48 89 c7             	mov    rdi,rax
    3d90:	e8 1b e7 ff ff       	call   24b0 <xlog_hexdump>
    3d95:	8b 4d f8             	mov    ecx,DWORD PTR [rbp-0x8]
    3d98:	48 8b 45 e8          	mov    rax,QWORD PTR [rbp-0x18]
    3d9c:	ba 32 00 00 00       	mov    edx,0x32
    3da1:	89 ce                	mov    esi,ecx
    3da3:	48 89 c7             	mov    rdi,rax
    3da6:	e8 b4 fe ff ff       	call   3c5f <DumpPtr2Str>
    3dab:	b8 00 00 00 00       	mov    eax,0x0
    3db0:	c9                   	leave  
    3db1:	c3                   	ret    

0000000000003db2 <func_sect_rela_dyn>:
    3db2:	f3 0f 1e fa          	endbr64 
    3db6:	55                   	push   rbp
    3db7:	48 89 e5             	mov    rbp,rsp
    3dba:	48 83 ec 40          	sub    rsp,0x40
    3dbe:	89 7d dc             	mov    DWORD PTR [rbp-0x24],edi
    3dc1:	48 89 75 d0          	mov    QWORD PTR [rbp-0x30],rsi
    3dc5:	48 89 55 c8          	mov    QWORD PTR [rbp-0x38],rdx
    3dc9:	89 4d d8             	mov    DWORD PTR [rbp-0x28],ecx
    3dcc:	4c 89 45 c0          	mov    QWORD PTR [rbp-0x40],r8
    3dd0:	ba 55 03 00 00       	mov    edx,0x355
    3dd5:	48 8d 35 c4 39 00 00 	lea    rsi,[rip+0x39c4]        # 77a0 <__func__.2957>
    3ddc:	48 8d 3d 55 2f 00 00 	lea    rdi,[rip+0x2f55]        # 6d38 <_IO_stdin_used+0xd38>
    3de3:	b8 00 00 00 00       	mov    eax,0x0
    3de8:	e8 7e ea ff ff       	call   286b <xlog_info>
    3ded:	48 8b 55 c0          	mov    rdx,QWORD PTR [rbp-0x40]
    3df1:	8b 45 dc             	mov    eax,DWORD PTR [rbp-0x24]
    3df4:	48 89 d6             	mov    rsi,rdx
    3df7:	89 c7                	mov    edi,eax
    3df9:	e8 46 ed ff ff       	call   2b44 <PrtSectHeader>
    3dfe:	8b 45 d8             	mov    eax,DWORD PTR [rbp-0x28]
    3e01:	48 63 d0             	movsxd rdx,eax
    3e04:	48 8b 45 c8          	mov    rax,QWORD PTR [rbp-0x38]
    3e08:	48 89 d6             	mov    rsi,rdx
    3e0b:	48 89 c7             	mov    rdi,rax
    3e0e:	e8 9d e6 ff ff       	call   24b0 <xlog_hexdump>
    3e13:	48 8b 45 c0          	mov    rax,QWORD PTR [rbp-0x40]
    3e17:	48 8b 40 20          	mov    rax,QWORD PTR [rax+0x20]
    3e1b:	48 8b 55 c0          	mov    rdx,QWORD PTR [rbp-0x40]
    3e1f:	48 8b 4a 38          	mov    rcx,QWORD PTR [rdx+0x38]
    3e23:	ba 00 00 00 00       	mov    edx,0x0
    3e28:	48 f7 f1             	div    rcx
    3e2b:	48 c1 e0 03          	shl    rax,0x3
    3e2f:	48 89 c7             	mov    rdi,rax
    3e32:	e8 b9 e3 ff ff       	call   21f0 <malloc@plt>
    3e37:	48 89 45 e8          	mov    QWORD PTR [rbp-0x18],rax
    3e3b:	48 8b 45 c8          	mov    rax,QWORD PTR [rbp-0x38]
    3e3f:	48 89 45 f0          	mov    QWORD PTR [rbp-0x10],rax
    3e43:	48 8b 45 c0          	mov    rax,QWORD PTR [rbp-0x40]
    3e47:	48 8b 40 20          	mov    rax,QWORD PTR [rax+0x20]
    3e4b:	48 8b 55 c0          	mov    rdx,QWORD PTR [rbp-0x40]
    3e4f:	48 8b 4a 38          	mov    rcx,QWORD PTR [rdx+0x38]
    3e53:	ba 00 00 00 00       	mov    edx,0x0
    3e58:	48 f7 f1             	div    rcx
    3e5b:	89 c6                	mov    esi,eax
    3e5d:	48 8d 3d e4 30 00 00 	lea    rdi,[rip+0x30e4]        # 6f48 <_IO_stdin_used+0xf48>
    3e64:	b8 00 00 00 00       	mov    eax,0x0
    3e69:	e8 fd e9 ff ff       	call   286b <xlog_info>
    3e6e:	48 8d 3d 1b 31 00 00 	lea    rdi,[rip+0x311b]        # 6f90 <_IO_stdin_used+0xf90>
    3e75:	b8 00 00 00 00       	mov    eax,0x0
    3e7a:	e8 ec e9 ff ff       	call   286b <xlog_info>
    3e7f:	c7 45 e4 00 00 00 00 	mov    DWORD PTR [rbp-0x1c],0x0
    3e86:	eb 7d                	jmp    3f05 <func_sect_rela_dyn+0x153>
    3e88:	8b 45 e4             	mov    eax,DWORD PTR [rbp-0x1c]
    3e8b:	48 63 d0             	movsxd rdx,eax
    3e8e:	48 89 d0             	mov    rax,rdx
    3e91:	48 01 c0             	add    rax,rax
    3e94:	48 01 d0             	add    rax,rdx
    3e97:	48 c1 e0 03          	shl    rax,0x3
    3e9b:	48 89 c2             	mov    rdx,rax
    3e9e:	48 8b 45 f0          	mov    rax,QWORD PTR [rbp-0x10]
    3ea2:	48 01 d0             	add    rax,rdx
    3ea5:	48 89 45 f8          	mov    QWORD PTR [rbp-0x8],rax
    3ea9:	48 8b 45 f8          	mov    rax,QWORD PTR [rbp-0x8]
    3ead:	48 8b 70 10          	mov    rsi,QWORD PTR [rax+0x10]
    3eb1:	48 8b 45 f8          	mov    rax,QWORD PTR [rbp-0x8]
    3eb5:	48 8b 40 08          	mov    rax,QWORD PTR [rax+0x8]
    3eb9:	89 c7                	mov    edi,eax
    3ebb:	48 8b 45 f8          	mov    rax,QWORD PTR [rbp-0x8]
    3ebf:	48 8b 48 08          	mov    rcx,QWORD PTR [rax+0x8]
    3ec3:	48 8b 45 f8          	mov    rax,QWORD PTR [rbp-0x8]
    3ec7:	48 8b 10             	mov    rdx,QWORD PTR [rax]
    3eca:	8b 45 e4             	mov    eax,DWORD PTR [rbp-0x1c]
    3ecd:	49 89 f1             	mov    r9,rsi
    3ed0:	49 89 f8             	mov    r8,rdi
    3ed3:	89 c6                	mov    esi,eax
    3ed5:	48 8d 3d 0c 31 00 00 	lea    rdi,[rip+0x310c]        # 6fe8 <_IO_stdin_used+0xfe8>
    3edc:	b8 00 00 00 00       	mov    eax,0x0
    3ee1:	e8 85 e9 ff ff       	call   286b <xlog_info>
    3ee6:	8b 45 e4             	mov    eax,DWORD PTR [rbp-0x1c]
    3ee9:	48 98                	cdqe   
    3eeb:	48 8d 14 c5 00 00 00 	lea    rdx,[rax*8+0x0]
    3ef2:	00 
    3ef3:	48 8b 45 e8          	mov    rax,QWORD PTR [rbp-0x18]
    3ef7:	48 01 c2             	add    rdx,rax
    3efa:	48 8b 45 f8          	mov    rax,QWORD PTR [rbp-0x8]
    3efe:	48 89 02             	mov    QWORD PTR [rdx],rax
    3f01:	83 45 e4 01          	add    DWORD PTR [rbp-0x1c],0x1
    3f05:	8b 45 e4             	mov    eax,DWORD PTR [rbp-0x1c]
    3f08:	48 63 c8             	movsxd rcx,eax
    3f0b:	48 8b 45 c0          	mov    rax,QWORD PTR [rbp-0x40]
    3f0f:	48 8b 40 20          	mov    rax,QWORD PTR [rax+0x20]
    3f13:	48 8b 55 c0          	mov    rdx,QWORD PTR [rbp-0x40]
    3f17:	48 8b 72 38          	mov    rsi,QWORD PTR [rdx+0x38]
    3f1b:	ba 00 00 00 00       	mov    edx,0x0
    3f20:	48 f7 f6             	div    rsi
    3f23:	48 39 c1             	cmp    rcx,rax
    3f26:	0f 82 5c ff ff ff    	jb     3e88 <func_sect_rela_dyn+0xd6>
    3f2c:	b8 00 00 00 00       	mov    eax,0x0
    3f31:	c9                   	leave  
    3f32:	c3                   	ret    

0000000000003f33 <func_sect_rela_plt>:
    3f33:	f3 0f 1e fa          	endbr64 
    3f37:	55                   	push   rbp
    3f38:	48 89 e5             	mov    rbp,rsp
    3f3b:	48 83 ec 40          	sub    rsp,0x40
    3f3f:	89 7d dc             	mov    DWORD PTR [rbp-0x24],edi
    3f42:	48 89 75 d0          	mov    QWORD PTR [rbp-0x30],rsi
    3f46:	48 89 55 c8          	mov    QWORD PTR [rbp-0x38],rdx
    3f4a:	89 4d d8             	mov    DWORD PTR [rbp-0x28],ecx
    3f4d:	4c 89 45 c0          	mov    QWORD PTR [rbp-0x40],r8
    3f51:	ba 76 03 00 00       	mov    edx,0x376
    3f56:	48 8d 35 63 38 00 00 	lea    rsi,[rip+0x3863]        # 77c0 <__func__.2972>
    3f5d:	48 8d 3d d4 2d 00 00 	lea    rdi,[rip+0x2dd4]        # 6d38 <_IO_stdin_used+0xd38>
    3f64:	b8 00 00 00 00       	mov    eax,0x0
    3f69:	e8 fd e8 ff ff       	call   286b <xlog_info>
    3f6e:	48 8b 55 c0          	mov    rdx,QWORD PTR [rbp-0x40]
    3f72:	8b 45 dc             	mov    eax,DWORD PTR [rbp-0x24]
    3f75:	48 89 d6             	mov    rsi,rdx
    3f78:	89 c7                	mov    edi,eax
    3f7a:	e8 c5 eb ff ff       	call   2b44 <PrtSectHeader>
    3f7f:	8b 45 d8             	mov    eax,DWORD PTR [rbp-0x28]
    3f82:	48 63 d0             	movsxd rdx,eax
    3f85:	48 8b 45 c8          	mov    rax,QWORD PTR [rbp-0x38]
    3f89:	48 89 d6             	mov    rsi,rdx
    3f8c:	48 89 c7             	mov    rdi,rax
    3f8f:	e8 1c e5 ff ff       	call   24b0 <xlog_hexdump>
    3f94:	48 8b 45 c8          	mov    rax,QWORD PTR [rbp-0x38]
    3f98:	48 89 45 e8          	mov    QWORD PTR [rbp-0x18],rax
    3f9c:	48 8b 45 c0          	mov    rax,QWORD PTR [rbp-0x40]
    3fa0:	48 8b 40 20          	mov    rax,QWORD PTR [rax+0x20]
    3fa4:	48 8b 55 c0          	mov    rdx,QWORD PTR [rbp-0x40]
    3fa8:	48 8b 4a 38          	mov    rcx,QWORD PTR [rdx+0x38]
    3fac:	ba 00 00 00 00       	mov    edx,0x0
    3fb1:	48 f7 f1             	div    rcx
    3fb4:	48 c1 e0 03          	shl    rax,0x3
    3fb8:	48 89 c7             	mov    rdi,rax
    3fbb:	e8 30 e2 ff ff       	call   21f0 <malloc@plt>
    3fc0:	48 89 45 f0          	mov    QWORD PTR [rbp-0x10],rax
    3fc4:	48 8d 3d 45 20 00 00 	lea    rdi,[rip+0x2045]        # 6010 <_IO_stdin_used+0x10>
    3fcb:	b8 00 00 00 00       	mov    eax,0x0
    3fd0:	e8 96 e8 ff ff       	call   286b <xlog_info>
    3fd5:	48 8b 45 c0          	mov    rax,QWORD PTR [rbp-0x40]
    3fd9:	48 8b 40 20          	mov    rax,QWORD PTR [rax+0x20]
    3fdd:	48 8b 55 c0          	mov    rdx,QWORD PTR [rbp-0x40]
    3fe1:	48 8b 4a 38          	mov    rcx,QWORD PTR [rdx+0x38]
    3fe5:	ba 00 00 00 00       	mov    edx,0x0
    3fea:	48 f7 f1             	div    rcx
    3fed:	89 c6                	mov    esi,eax
    3fef:	48 8d 3d 42 30 00 00 	lea    rdi,[rip+0x3042]        # 7038 <_IO_stdin_used+0x1038>
    3ff6:	b8 00 00 00 00       	mov    eax,0x0
    3ffb:	e8 6b e8 ff ff       	call   286b <xlog_info>
    4000:	48 8d 3d 79 30 00 00 	lea    rdi,[rip+0x3079]        # 7080 <_IO_stdin_used+0x1080>
    4007:	b8 00 00 00 00       	mov    eax,0x0
    400c:	e8 5a e8 ff ff       	call   286b <xlog_info>
    4011:	c7 45 e4 00 00 00 00 	mov    DWORD PTR [rbp-0x1c],0x0
    4018:	eb 7d                	jmp    4097 <func_sect_rela_plt+0x164>
    401a:	8b 45 e4             	mov    eax,DWORD PTR [rbp-0x1c]
    401d:	48 63 d0             	movsxd rdx,eax
    4020:	48 89 d0             	mov    rax,rdx
    4023:	48 01 c0             	add    rax,rax
    4026:	48 01 d0             	add    rax,rdx
    4029:	48 c1 e0 03          	shl    rax,0x3
    402d:	48 89 c2             	mov    rdx,rax
    4030:	48 8b 45 e8          	mov    rax,QWORD PTR [rbp-0x18]
    4034:	48 01 d0             	add    rax,rdx
    4037:	48 89 45 f8          	mov    QWORD PTR [rbp-0x8],rax
    403b:	48 8b 45 f8          	mov    rax,QWORD PTR [rbp-0x8]
    403f:	48 8b 70 10          	mov    rsi,QWORD PTR [rax+0x10]
    4043:	48 8b 45 f8          	mov    rax,QWORD PTR [rbp-0x8]
    4047:	48 8b 40 08          	mov    rax,QWORD PTR [rax+0x8]
    404b:	89 c7                	mov    edi,eax
    404d:	48 8b 45 f8          	mov    rax,QWORD PTR [rbp-0x8]
    4051:	48 8b 48 08          	mov    rcx,QWORD PTR [rax+0x8]
    4055:	48 8b 45 f8          	mov    rax,QWORD PTR [rbp-0x8]
    4059:	48 8b 10             	mov    rdx,QWORD PTR [rax]
    405c:	8b 45 e4             	mov    eax,DWORD PTR [rbp-0x1c]
    405f:	49 89 f1             	mov    r9,rsi
    4062:	49 89 f8             	mov    r8,rdi
    4065:	89 c6                	mov    esi,eax
    4067:	48 8d 3d 62 30 00 00 	lea    rdi,[rip+0x3062]        # 70d0 <_IO_stdin_used+0x10d0>
    406e:	b8 00 00 00 00       	mov    eax,0x0
    4073:	e8 f3 e7 ff ff       	call   286b <xlog_info>
    4078:	8b 45 e4             	mov    eax,DWORD PTR [rbp-0x1c]
    407b:	48 98                	cdqe   
    407d:	48 8d 14 c5 00 00 00 	lea    rdx,[rax*8+0x0]
    4084:	00 
    4085:	48 8b 45 f0          	mov    rax,QWORD PTR [rbp-0x10]
    4089:	48 01 c2             	add    rdx,rax
    408c:	48 8b 45 f8          	mov    rax,QWORD PTR [rbp-0x8]
    4090:	48 89 02             	mov    QWORD PTR [rdx],rax
    4093:	83 45 e4 01          	add    DWORD PTR [rbp-0x1c],0x1
    4097:	8b 45 e4             	mov    eax,DWORD PTR [rbp-0x1c]
    409a:	48 63 c8             	movsxd rcx,eax
    409d:	48 8b 45 c0          	mov    rax,QWORD PTR [rbp-0x40]
    40a1:	48 8b 40 20          	mov    rax,QWORD PTR [rax+0x20]
    40a5:	48 8b 55 c0          	mov    rdx,QWORD PTR [rbp-0x40]
    40a9:	48 8b 72 38          	mov    rsi,QWORD PTR [rdx+0x38]
    40ad:	ba 00 00 00 00       	mov    edx,0x0
    40b2:	48 f7 f6             	div    rsi
    40b5:	48 39 c1             	cmp    rcx,rax
    40b8:	0f 82 5c ff ff ff    	jb     401a <func_sect_rela_plt+0xe7>
    40be:	b8 00 00 00 00       	mov    eax,0x0
    40c3:	c9                   	leave  
    40c4:	c3                   	ret    

00000000000040c5 <func_sect_init>:
    40c5:	f3 0f 1e fa          	endbr64 
    40c9:	55                   	push   rbp
    40ca:	48 89 e5             	mov    rbp,rsp
    40cd:	48 83 ec 20          	sub    rsp,0x20
    40d1:	89 7d fc             	mov    DWORD PTR [rbp-0x4],edi
    40d4:	48 89 75 f0          	mov    QWORD PTR [rbp-0x10],rsi
    40d8:	48 89 55 e8          	mov    QWORD PTR [rbp-0x18],rdx
    40dc:	89 4d f8             	mov    DWORD PTR [rbp-0x8],ecx
    40df:	4c 89 45 e0          	mov    QWORD PTR [rbp-0x20],r8
    40e3:	ba 9b 03 00 00       	mov    edx,0x39b
    40e8:	48 8d 35 e9 36 00 00 	lea    rsi,[rip+0x36e9]        # 77d8 <__func__.2987>
    40ef:	48 8d 3d 42 2c 00 00 	lea    rdi,[rip+0x2c42]        # 6d38 <_IO_stdin_used+0xd38>
    40f6:	b8 00 00 00 00       	mov    eax,0x0
    40fb:	e8 6b e7 ff ff       	call   286b <xlog_info>
    4100:	48 8b 55 e0          	mov    rdx,QWORD PTR [rbp-0x20]
    4104:	8b 45 fc             	mov    eax,DWORD PTR [rbp-0x4]
    4107:	48 89 d6             	mov    rsi,rdx
    410a:	89 c7                	mov    edi,eax
    410c:	e8 33 ea ff ff       	call   2b44 <PrtSectHeader>
    4111:	8b 45 f8             	mov    eax,DWORD PTR [rbp-0x8]
    4114:	48 63 d0             	movsxd rdx,eax
    4117:	48 8b 45 e8          	mov    rax,QWORD PTR [rbp-0x18]
    411b:	48 89 d6             	mov    rsi,rdx
    411e:	48 89 c7             	mov    rdi,rax
    4121:	e8 8a e3 ff ff       	call   24b0 <xlog_hexdump>
    4126:	b8 00 00 00 00       	mov    eax,0x0
    412b:	c9                   	leave  
    412c:	c3                   	ret    

000000000000412d <func_sect_plt>:
    412d:	f3 0f 1e fa          	endbr64 
    4131:	55                   	push   rbp
    4132:	48 89 e5             	mov    rbp,rsp
    4135:	48 83 ec 20          	sub    rsp,0x20
    4139:	89 7d fc             	mov    DWORD PTR [rbp-0x4],edi
    413c:	48 89 75 f0          	mov    QWORD PTR [rbp-0x10],rsi
    4140:	48 89 55 e8          	mov    QWORD PTR [rbp-0x18],rdx
    4144:	89 4d f8             	mov    DWORD PTR [rbp-0x8],ecx
    4147:	4c 89 45 e0          	mov    QWORD PTR [rbp-0x20],r8
    414b:	ba b2 03 00 00       	mov    edx,0x3b2
    4150:	48 8d 35 91 36 00 00 	lea    rsi,[rip+0x3691]        # 77e8 <__func__.2995>
    4157:	48 8d 3d da 2b 00 00 	lea    rdi,[rip+0x2bda]        # 6d38 <_IO_stdin_used+0xd38>
    415e:	b8 00 00 00 00       	mov    eax,0x0
    4163:	e8 03 e7 ff ff       	call   286b <xlog_info>
    4168:	48 8b 55 e0          	mov    rdx,QWORD PTR [rbp-0x20]
    416c:	8b 45 fc             	mov    eax,DWORD PTR [rbp-0x4]
    416f:	48 89 d6             	mov    rsi,rdx
    4172:	89 c7                	mov    edi,eax
    4174:	e8 cb e9 ff ff       	call   2b44 <PrtSectHeader>
    4179:	8b 45 f8             	mov    eax,DWORD PTR [rbp-0x8]
    417c:	48 63 d0             	movsxd rdx,eax
    417f:	48 8b 45 e8          	mov    rax,QWORD PTR [rbp-0x18]
    4183:	48 89 d6             	mov    rsi,rdx
    4186:	48 89 c7             	mov    rdi,rax
    4189:	e8 22 e3 ff ff       	call   24b0 <xlog_hexdump>
    418e:	b8 00 00 00 00       	mov    eax,0x0
    4193:	c9                   	leave  
    4194:	c3                   	ret    

0000000000004195 <func_sect_plt_got>:
    4195:	f3 0f 1e fa          	endbr64 
    4199:	55                   	push   rbp
    419a:	48 89 e5             	mov    rbp,rsp
    419d:	48 83 ec 20          	sub    rsp,0x20
    41a1:	89 7d fc             	mov    DWORD PTR [rbp-0x4],edi
    41a4:	48 89 75 f0          	mov    QWORD PTR [rbp-0x10],rsi
    41a8:	48 89 55 e8          	mov    QWORD PTR [rbp-0x18],rdx
    41ac:	89 4d f8             	mov    DWORD PTR [rbp-0x8],ecx
    41af:	4c 89 45 e0          	mov    QWORD PTR [rbp-0x20],r8
    41b3:	ba fb 03 00 00       	mov    edx,0x3fb
    41b8:	48 8d 35 41 36 00 00 	lea    rsi,[rip+0x3641]        # 7800 <__func__.3003>
    41bf:	48 8d 3d 72 2b 00 00 	lea    rdi,[rip+0x2b72]        # 6d38 <_IO_stdin_used+0xd38>
    41c6:	b8 00 00 00 00       	mov    eax,0x0
    41cb:	e8 9b e6 ff ff       	call   286b <xlog_info>
    41d0:	48 8b 55 e0          	mov    rdx,QWORD PTR [rbp-0x20]
    41d4:	8b 45 fc             	mov    eax,DWORD PTR [rbp-0x4]
    41d7:	48 89 d6             	mov    rsi,rdx
    41da:	89 c7                	mov    edi,eax
    41dc:	e8 63 e9 ff ff       	call   2b44 <PrtSectHeader>
    41e1:	8b 45 f8             	mov    eax,DWORD PTR [rbp-0x8]
    41e4:	48 63 d0             	movsxd rdx,eax
    41e7:	48 8b 45 e8          	mov    rax,QWORD PTR [rbp-0x18]
    41eb:	48 89 d6             	mov    rsi,rdx
    41ee:	48 89 c7             	mov    rdi,rax
    41f1:	e8 ba e2 ff ff       	call   24b0 <xlog_hexdump>
    41f6:	b8 00 00 00 00       	mov    eax,0x0
    41fb:	c9                   	leave  
    41fc:	c3                   	ret    

00000000000041fd <func_sect_plt_sec>:
    41fd:	f3 0f 1e fa          	endbr64 
    4201:	55                   	push   rbp
    4202:	48 89 e5             	mov    rbp,rsp
    4205:	48 83 ec 20          	sub    rsp,0x20
    4209:	89 7d fc             	mov    DWORD PTR [rbp-0x4],edi
    420c:	48 89 75 f0          	mov    QWORD PTR [rbp-0x10],rsi
    4210:	48 89 55 e8          	mov    QWORD PTR [rbp-0x18],rdx
    4214:	89 4d f8             	mov    DWORD PTR [rbp-0x8],ecx
    4217:	4c 89 45 e0          	mov    QWORD PTR [rbp-0x20],r8
    421b:	ba 0d 04 00 00       	mov    edx,0x40d
    4220:	48 8d 35 f9 35 00 00 	lea    rsi,[rip+0x35f9]        # 7820 <__func__.3011>
    4227:	48 8d 3d 0a 2b 00 00 	lea    rdi,[rip+0x2b0a]        # 6d38 <_IO_stdin_used+0xd38>
    422e:	b8 00 00 00 00       	mov    eax,0x0
    4233:	e8 33 e6 ff ff       	call   286b <xlog_info>
    4238:	48 8b 55 e0          	mov    rdx,QWORD PTR [rbp-0x20]
    423c:	8b 45 fc             	mov    eax,DWORD PTR [rbp-0x4]
    423f:	48 89 d6             	mov    rsi,rdx
    4242:	89 c7                	mov    edi,eax
    4244:	e8 fb e8 ff ff       	call   2b44 <PrtSectHeader>
    4249:	8b 45 f8             	mov    eax,DWORD PTR [rbp-0x8]
    424c:	48 63 d0             	movsxd rdx,eax
    424f:	48 8b 45 e8          	mov    rax,QWORD PTR [rbp-0x18]
    4253:	48 89 d6             	mov    rsi,rdx
    4256:	48 89 c7             	mov    rdi,rax
    4259:	e8 52 e2 ff ff       	call   24b0 <xlog_hexdump>
    425e:	b8 00 00 00 00       	mov    eax,0x0
    4263:	c9                   	leave  
    4264:	c3                   	ret    

0000000000004265 <func_sect_text>:
    4265:	f3 0f 1e fa          	endbr64 
    4269:	55                   	push   rbp
    426a:	48 89 e5             	mov    rbp,rsp
    426d:	48 83 ec 20          	sub    rsp,0x20
    4271:	89 7d fc             	mov    DWORD PTR [rbp-0x4],edi
    4274:	48 89 75 f0          	mov    QWORD PTR [rbp-0x10],rsi
    4278:	48 89 55 e8          	mov    QWORD PTR [rbp-0x18],rdx
    427c:	89 4d f8             	mov    DWORD PTR [rbp-0x8],ecx
    427f:	4c 89 45 e0          	mov    QWORD PTR [rbp-0x20],r8
    4283:	ba 60 04 00 00       	mov    edx,0x460
    4288:	48 8d 35 a9 35 00 00 	lea    rsi,[rip+0x35a9]        # 7838 <__func__.3019>
    428f:	48 8d 3d a2 2a 00 00 	lea    rdi,[rip+0x2aa2]        # 6d38 <_IO_stdin_used+0xd38>
    4296:	b8 00 00 00 00       	mov    eax,0x0
    429b:	e8 cb e5 ff ff       	call   286b <xlog_info>
    42a0:	48 8b 55 e0          	mov    rdx,QWORD PTR [rbp-0x20]
    42a4:	8b 45 fc             	mov    eax,DWORD PTR [rbp-0x4]
    42a7:	48 89 d6             	mov    rsi,rdx
    42aa:	89 c7                	mov    edi,eax
    42ac:	e8 93 e8 ff ff       	call   2b44 <PrtSectHeader>
    42b1:	48 8b 45 e8          	mov    rax,QWORD PTR [rbp-0x18]
    42b5:	be 49 01 00 00       	mov    esi,0x149
    42ba:	48 89 c7             	mov    rdi,rax
    42bd:	e8 ee e1 ff ff       	call   24b0 <xlog_hexdump>
    42c2:	b8 00 00 00 00       	mov    eax,0x0
    42c7:	c9                   	leave  
    42c8:	c3                   	ret    

00000000000042c9 <func_sect_fini>:
    42c9:	f3 0f 1e fa          	endbr64 
    42cd:	55                   	push   rbp
    42ce:	48 89 e5             	mov    rbp,rsp
    42d1:	48 83 ec 20          	sub    rsp,0x20
    42d5:	89 7d fc             	mov    DWORD PTR [rbp-0x4],edi
    42d8:	48 89 75 f0          	mov    QWORD PTR [rbp-0x10],rsi
    42dc:	48 89 55 e8          	mov    QWORD PTR [rbp-0x18],rdx
    42e0:	89 4d f8             	mov    DWORD PTR [rbp-0x8],ecx
    42e3:	4c 89 45 e0          	mov    QWORD PTR [rbp-0x20],r8
    42e7:	ba d9 04 00 00       	mov    edx,0x4d9
    42ec:	48 8d 35 55 35 00 00 	lea    rsi,[rip+0x3555]        # 7848 <__func__.3027>
    42f3:	48 8d 3d 3e 2a 00 00 	lea    rdi,[rip+0x2a3e]        # 6d38 <_IO_stdin_used+0xd38>
    42fa:	b8 00 00 00 00       	mov    eax,0x0
    42ff:	e8 67 e5 ff ff       	call   286b <xlog_info>
    4304:	48 8b 55 e0          	mov    rdx,QWORD PTR [rbp-0x20]
    4308:	8b 45 fc             	mov    eax,DWORD PTR [rbp-0x4]
    430b:	48 89 d6             	mov    rsi,rdx
    430e:	89 c7                	mov    edi,eax
    4310:	e8 2f e8 ff ff       	call   2b44 <PrtSectHeader>
    4315:	8b 45 f8             	mov    eax,DWORD PTR [rbp-0x8]
    4318:	48 63 d0             	movsxd rdx,eax
    431b:	48 8b 45 e8          	mov    rax,QWORD PTR [rbp-0x18]
    431f:	48 89 d6             	mov    rsi,rdx
    4322:	48 89 c7             	mov    rdi,rax
    4325:	e8 86 e1 ff ff       	call   24b0 <xlog_hexdump>
    432a:	b8 00 00 00 00       	mov    eax,0x0
    432f:	c9                   	leave  
    4330:	c3                   	ret    

0000000000004331 <func_sect_rodata>:
    4331:	f3 0f 1e fa          	endbr64 
    4335:	55                   	push   rbp
    4336:	48 89 e5             	mov    rbp,rsp
    4339:	48 83 ec 20          	sub    rsp,0x20
    433d:	89 7d fc             	mov    DWORD PTR [rbp-0x4],edi
    4340:	48 89 75 f0          	mov    QWORD PTR [rbp-0x10],rsi
    4344:	48 89 55 e8          	mov    QWORD PTR [rbp-0x18],rdx
    4348:	89 4d f8             	mov    DWORD PTR [rbp-0x8],ecx
    434b:	4c 89 45 e0          	mov    QWORD PTR [rbp-0x20],r8
    434f:	ba eb 04 00 00       	mov    edx,0x4eb
    4354:	48 8d 35 05 35 00 00 	lea    rsi,[rip+0x3505]        # 7860 <__func__.3035>
    435b:	48 8d 3d d6 29 00 00 	lea    rdi,[rip+0x29d6]        # 6d38 <_IO_stdin_used+0xd38>
    4362:	b8 00 00 00 00       	mov    eax,0x0
    4367:	e8 ff e4 ff ff       	call   286b <xlog_info>
    436c:	48 8b 55 e0          	mov    rdx,QWORD PTR [rbp-0x20]
    4370:	8b 45 fc             	mov    eax,DWORD PTR [rbp-0x4]
    4373:	48 89 d6             	mov    rsi,rdx
    4376:	89 c7                	mov    edi,eax
    4378:	e8 c7 e7 ff ff       	call   2b44 <PrtSectHeader>
    437d:	8b 45 f8             	mov    eax,DWORD PTR [rbp-0x8]
    4380:	48 63 d0             	movsxd rdx,eax
    4383:	48 8b 45 e8          	mov    rax,QWORD PTR [rbp-0x18]
    4387:	48 89 d6             	mov    rsi,rdx
    438a:	48 89 c7             	mov    rdi,rax
    438d:	e8 1e e1 ff ff       	call   24b0 <xlog_hexdump>
    4392:	b8 00 00 00 00       	mov    eax,0x0
    4397:	c9                   	leave  
    4398:	c3                   	ret    

0000000000004399 <xlog_ptrdump>:
    4399:	f3 0f 1e fa          	endbr64 
    439d:	55                   	push   rbp
    439e:	48 89 e5             	mov    rbp,rsp
    43a1:	48 83 ec 20          	sub    rsp,0x20
    43a5:	48 89 7d e8          	mov    QWORD PTR [rbp-0x18],rdi
    43a9:	89 75 e4             	mov    DWORD PTR [rbp-0x1c],esi
    43ac:	48 8b 45 e8          	mov    rax,QWORD PTR [rbp-0x18]
    43b0:	48 89 45 f8          	mov    QWORD PTR [rbp-0x8],rax
    43b4:	48 8d 3d 65 2d 00 00 	lea    rdi,[rip+0x2d65]        # 7120 <_IO_stdin_used+0x1120>
    43bb:	b8 00 00 00 00       	mov    eax,0x0
    43c0:	e8 a6 e4 ff ff       	call   286b <xlog_info>
    43c5:	c7 45 f4 00 00 00 00 	mov    DWORD PTR [rbp-0xc],0x0
    43cc:	eb 2f                	jmp    43fd <xlog_ptrdump+0x64>
    43ce:	8b 45 f4             	mov    eax,DWORD PTR [rbp-0xc]
    43d1:	48 8d 14 c5 00 00 00 	lea    rdx,[rax*8+0x0]
    43d8:	00 
    43d9:	48 8b 45 f8          	mov    rax,QWORD PTR [rbp-0x8]
    43dd:	48 01 d0             	add    rax,rdx
    43e0:	48 8b 10             	mov    rdx,QWORD PTR [rax]
    43e3:	8b 45 f4             	mov    eax,DWORD PTR [rbp-0xc]
    43e6:	89 c6                	mov    esi,eax
    43e8:	48 8d 3d 64 2d 00 00 	lea    rdi,[rip+0x2d64]        # 7153 <_IO_stdin_used+0x1153>
    43ef:	b8 00 00 00 00       	mov    eax,0x0
    43f4:	e8 72 e4 ff ff       	call   286b <xlog_info>
    43f9:	83 45 f4 01          	add    DWORD PTR [rbp-0xc],0x1
    43fd:	8b 45 f4             	mov    eax,DWORD PTR [rbp-0xc]
    4400:	3b 45 e4             	cmp    eax,DWORD PTR [rbp-0x1c]
    4403:	72 c9                	jb     43ce <xlog_ptrdump+0x35>
    4405:	48 8d 3d 14 2d 00 00 	lea    rdi,[rip+0x2d14]        # 7120 <_IO_stdin_used+0x1120>
    440c:	b8 00 00 00 00       	mov    eax,0x0
    4411:	e8 55 e4 ff ff       	call   286b <xlog_info>
    4416:	48 8d 3d f3 1b 00 00 	lea    rdi,[rip+0x1bf3]        # 6010 <_IO_stdin_used+0x10>
    441d:	b8 00 00 00 00       	mov    eax,0x0
    4422:	e8 44 e4 ff ff       	call   286b <xlog_info>
    4427:	90                   	nop
    4428:	c9                   	leave  
    4429:	c3                   	ret    

000000000000442a <func_sect_init_array>:
    442a:	f3 0f 1e fa          	endbr64 
    442e:	55                   	push   rbp
    442f:	48 89 e5             	mov    rbp,rsp
    4432:	48 83 ec 20          	sub    rsp,0x20
    4436:	89 7d fc             	mov    DWORD PTR [rbp-0x4],edi
    4439:	48 89 75 f0          	mov    QWORD PTR [rbp-0x10],rsi
    443d:	48 89 55 e8          	mov    QWORD PTR [rbp-0x18],rdx
    4441:	89 4d f8             	mov    DWORD PTR [rbp-0x8],ecx
    4444:	4c 89 45 e0          	mov    QWORD PTR [rbp-0x20],r8
    4448:	ba 32 05 00 00       	mov    edx,0x532
    444d:	48 8d 35 2c 34 00 00 	lea    rsi,[rip+0x342c]        # 7880 <__func__.3052>
    4454:	48 8d 3d dd 28 00 00 	lea    rdi,[rip+0x28dd]        # 6d38 <_IO_stdin_used+0xd38>
    445b:	b8 00 00 00 00       	mov    eax,0x0
    4460:	e8 06 e4 ff ff       	call   286b <xlog_info>
    4465:	48 8b 55 e0          	mov    rdx,QWORD PTR [rbp-0x20]
    4469:	8b 45 fc             	mov    eax,DWORD PTR [rbp-0x4]
    446c:	48 89 d6             	mov    rsi,rdx
    446f:	89 c7                	mov    edi,eax
    4471:	e8 ce e6 ff ff       	call   2b44 <PrtSectHeader>
    4476:	8b 45 f8             	mov    eax,DWORD PTR [rbp-0x8]
    4479:	48 63 d0             	movsxd rdx,eax
    447c:	48 8b 45 e8          	mov    rax,QWORD PTR [rbp-0x18]
    4480:	48 89 d6             	mov    rsi,rdx
    4483:	48 89 c7             	mov    rdi,rax
    4486:	e8 25 e0 ff ff       	call   24b0 <xlog_hexdump>
    448b:	8b 45 f8             	mov    eax,DWORD PTR [rbp-0x8]
    448e:	48 98                	cdqe   
    4490:	48 8b 55 e0          	mov    rdx,QWORD PTR [rbp-0x20]
    4494:	48 8b 4a 38          	mov    rcx,QWORD PTR [rdx+0x38]
    4498:	ba 00 00 00 00       	mov    edx,0x0
    449d:	48 f7 f1             	div    rcx
    44a0:	89 c2                	mov    edx,eax
    44a2:	48 8b 45 e8          	mov    rax,QWORD PTR [rbp-0x18]
    44a6:	89 d6                	mov    esi,edx
    44a8:	48 89 c7             	mov    rdi,rax
    44ab:	e8 e9 fe ff ff       	call   4399 <xlog_ptrdump>
    44b0:	b8 00 00 00 00       	mov    eax,0x0
    44b5:	c9                   	leave  
    44b6:	c3                   	ret    

00000000000044b7 <func_sect_fini_array>:
    44b7:	f3 0f 1e fa          	endbr64 
    44bb:	55                   	push   rbp
    44bc:	48 89 e5             	mov    rbp,rsp
    44bf:	48 83 ec 20          	sub    rsp,0x20
    44c3:	89 7d fc             	mov    DWORD PTR [rbp-0x4],edi
    44c6:	48 89 75 f0          	mov    QWORD PTR [rbp-0x10],rsi
    44ca:	48 89 55 e8          	mov    QWORD PTR [rbp-0x18],rdx
    44ce:	89 4d f8             	mov    DWORD PTR [rbp-0x8],ecx
    44d1:	4c 89 45 e0          	mov    QWORD PTR [rbp-0x20],r8
    44d5:	ba 5f 05 00 00       	mov    edx,0x55f
    44da:	48 8d 35 bf 33 00 00 	lea    rsi,[rip+0x33bf]        # 78a0 <__func__.3060>
    44e1:	48 8d 3d 50 28 00 00 	lea    rdi,[rip+0x2850]        # 6d38 <_IO_stdin_used+0xd38>
    44e8:	b8 00 00 00 00       	mov    eax,0x0
    44ed:	e8 79 e3 ff ff       	call   286b <xlog_info>
    44f2:	48 8b 55 e0          	mov    rdx,QWORD PTR [rbp-0x20]
    44f6:	8b 45 fc             	mov    eax,DWORD PTR [rbp-0x4]
    44f9:	48 89 d6             	mov    rsi,rdx
    44fc:	89 c7                	mov    edi,eax
    44fe:	e8 41 e6 ff ff       	call   2b44 <PrtSectHeader>
    4503:	8b 45 f8             	mov    eax,DWORD PTR [rbp-0x8]
    4506:	48 63 d0             	movsxd rdx,eax
    4509:	48 8b 45 e8          	mov    rax,QWORD PTR [rbp-0x18]
    450d:	48 89 d6             	mov    rsi,rdx
    4510:	48 89 c7             	mov    rdi,rax
    4513:	e8 98 df ff ff       	call   24b0 <xlog_hexdump>
    4518:	8b 45 f8             	mov    eax,DWORD PTR [rbp-0x8]
    451b:	48 98                	cdqe   
    451d:	48 8b 55 e0          	mov    rdx,QWORD PTR [rbp-0x20]
    4521:	48 8b 4a 38          	mov    rcx,QWORD PTR [rdx+0x38]
    4525:	ba 00 00 00 00       	mov    edx,0x0
    452a:	48 f7 f1             	div    rcx
    452d:	89 c2                	mov    edx,eax
    452f:	48 8b 45 e8          	mov    rax,QWORD PTR [rbp-0x18]
    4533:	89 d6                	mov    esi,edx
    4535:	48 89 c7             	mov    rdi,rax
    4538:	e8 5c fe ff ff       	call   4399 <xlog_ptrdump>
    453d:	b8 00 00 00 00       	mov    eax,0x0
    4542:	c9                   	leave  
    4543:	c3                   	ret    

0000000000004544 <func_sect_dynamic>:
    4544:	f3 0f 1e fa          	endbr64 
    4548:	55                   	push   rbp
    4549:	48 89 e5             	mov    rbp,rsp
    454c:	48 83 ec 20          	sub    rsp,0x20
    4550:	89 7d fc             	mov    DWORD PTR [rbp-0x4],edi
    4553:	48 89 75 f0          	mov    QWORD PTR [rbp-0x10],rsi
    4557:	48 89 55 e8          	mov    QWORD PTR [rbp-0x18],rdx
    455b:	89 4d f8             	mov    DWORD PTR [rbp-0x8],ecx
    455e:	4c 89 45 e0          	mov    QWORD PTR [rbp-0x20],r8
    4562:	ba 8d 05 00 00       	mov    edx,0x58d
    4567:	48 8d 35 52 33 00 00 	lea    rsi,[rip+0x3352]        # 78c0 <__func__.3068>
    456e:	48 8d 3d c3 27 00 00 	lea    rdi,[rip+0x27c3]        # 6d38 <_IO_stdin_used+0xd38>
    4575:	b8 00 00 00 00       	mov    eax,0x0
    457a:	e8 ec e2 ff ff       	call   286b <xlog_info>
    457f:	48 8b 55 e0          	mov    rdx,QWORD PTR [rbp-0x20]
    4583:	8b 45 fc             	mov    eax,DWORD PTR [rbp-0x4]
    4586:	48 89 d6             	mov    rsi,rdx
    4589:	89 c7                	mov    edi,eax
    458b:	e8 b4 e5 ff ff       	call   2b44 <PrtSectHeader>
    4590:	8b 45 f8             	mov    eax,DWORD PTR [rbp-0x8]
    4593:	48 63 d0             	movsxd rdx,eax
    4596:	48 8b 45 e8          	mov    rax,QWORD PTR [rbp-0x18]
    459a:	48 89 d6             	mov    rsi,rdx
    459d:	48 89 c7             	mov    rdi,rax
    45a0:	e8 0b df ff ff       	call   24b0 <xlog_hexdump>
    45a5:	b8 00 00 00 00       	mov    eax,0x0
    45aa:	c9                   	leave  
    45ab:	c3                   	ret    

00000000000045ac <func_sect_got>:
    45ac:	f3 0f 1e fa          	endbr64 
    45b0:	55                   	push   rbp
    45b1:	48 89 e5             	mov    rbp,rsp
    45b4:	48 83 ec 20          	sub    rsp,0x20
    45b8:	89 7d fc             	mov    DWORD PTR [rbp-0x4],edi
    45bb:	48 89 75 f0          	mov    QWORD PTR [rbp-0x10],rsi
    45bf:	48 89 55 e8          	mov    QWORD PTR [rbp-0x18],rdx
    45c3:	89 4d f8             	mov    DWORD PTR [rbp-0x8],ecx
    45c6:	4c 89 45 e0          	mov    QWORD PTR [rbp-0x20],r8
    45ca:	ba 98 05 00 00       	mov    edx,0x598
    45cf:	48 8d 35 02 33 00 00 	lea    rsi,[rip+0x3302]        # 78d8 <__func__.3076>
    45d6:	48 8d 3d 5b 27 00 00 	lea    rdi,[rip+0x275b]        # 6d38 <_IO_stdin_used+0xd38>
    45dd:	b8 00 00 00 00       	mov    eax,0x0
    45e2:	e8 84 e2 ff ff       	call   286b <xlog_info>
    45e7:	48 8b 55 e0          	mov    rdx,QWORD PTR [rbp-0x20]
    45eb:	8b 45 fc             	mov    eax,DWORD PTR [rbp-0x4]
    45ee:	48 89 d6             	mov    rsi,rdx
    45f1:	89 c7                	mov    edi,eax
    45f3:	e8 4c e5 ff ff       	call   2b44 <PrtSectHeader>
    45f8:	8b 45 f8             	mov    eax,DWORD PTR [rbp-0x8]
    45fb:	48 63 d0             	movsxd rdx,eax
    45fe:	48 8b 45 e8          	mov    rax,QWORD PTR [rbp-0x18]
    4602:	48 89 d6             	mov    rsi,rdx
    4605:	48 89 c7             	mov    rdi,rax
    4608:	e8 a3 de ff ff       	call   24b0 <xlog_hexdump>
    460d:	b8 00 00 00 00       	mov    eax,0x0
    4612:	c9                   	leave  
    4613:	c3                   	ret    

0000000000004614 <func_sect_got_plt>:
    4614:	f3 0f 1e fa          	endbr64 
    4618:	55                   	push   rbp
    4619:	48 89 e5             	mov    rbp,rsp
    461c:	48 83 ec 20          	sub    rsp,0x20
    4620:	89 7d fc             	mov    DWORD PTR [rbp-0x4],edi
    4623:	48 89 75 f0          	mov    QWORD PTR [rbp-0x10],rsi
    4627:	48 89 55 e8          	mov    QWORD PTR [rbp-0x18],rdx
    462b:	89 4d f8             	mov    DWORD PTR [rbp-0x8],ecx
    462e:	4c 89 45 e0          	mov    QWORD PTR [rbp-0x20],r8
    4632:	ba c3 05 00 00       	mov    edx,0x5c3
    4637:	48 8d 35 b2 32 00 00 	lea    rsi,[rip+0x32b2]        # 78f0 <__func__.3084>
    463e:	48 8d 3d f3 26 00 00 	lea    rdi,[rip+0x26f3]        # 6d38 <_IO_stdin_used+0xd38>
    4645:	b8 00 00 00 00       	mov    eax,0x0
    464a:	e8 1c e2 ff ff       	call   286b <xlog_info>
    464f:	48 8b 55 e0          	mov    rdx,QWORD PTR [rbp-0x20]
    4653:	8b 45 fc             	mov    eax,DWORD PTR [rbp-0x4]
    4656:	48 89 d6             	mov    rsi,rdx
    4659:	89 c7                	mov    edi,eax
    465b:	e8 e4 e4 ff ff       	call   2b44 <PrtSectHeader>
    4660:	8b 45 f8             	mov    eax,DWORD PTR [rbp-0x8]
    4663:	48 63 d0             	movsxd rdx,eax
    4666:	48 8b 45 e8          	mov    rax,QWORD PTR [rbp-0x18]
    466a:	48 89 d6             	mov    rsi,rdx
    466d:	48 89 c7             	mov    rdi,rax
    4670:	e8 3b de ff ff       	call   24b0 <xlog_hexdump>
    4675:	b8 00 00 00 00       	mov    eax,0x0
    467a:	c9                   	leave  
    467b:	c3                   	ret    

000000000000467c <func_sect_data>:
    467c:	f3 0f 1e fa          	endbr64 
    4680:	55                   	push   rbp
    4681:	48 89 e5             	mov    rbp,rsp
    4684:	48 83 ec 20          	sub    rsp,0x20
    4688:	89 7d fc             	mov    DWORD PTR [rbp-0x4],edi
    468b:	48 89 75 f0          	mov    QWORD PTR [rbp-0x10],rsi
    468f:	48 89 55 e8          	mov    QWORD PTR [rbp-0x18],rdx
    4693:	89 4d f8             	mov    DWORD PTR [rbp-0x8],ecx
    4696:	4c 89 45 e0          	mov    QWORD PTR [rbp-0x20],r8
    469a:	ba ce 05 00 00       	mov    edx,0x5ce
    469f:	48 8d 35 62 32 00 00 	lea    rsi,[rip+0x3262]        # 7908 <__func__.3092>
    46a6:	48 8d 3d 8b 26 00 00 	lea    rdi,[rip+0x268b]        # 6d38 <_IO_stdin_used+0xd38>
    46ad:	b8 00 00 00 00       	mov    eax,0x0
    46b2:	e8 b4 e1 ff ff       	call   286b <xlog_info>
    46b7:	48 8b 55 e0          	mov    rdx,QWORD PTR [rbp-0x20]
    46bb:	8b 45 fc             	mov    eax,DWORD PTR [rbp-0x4]
    46be:	48 89 d6             	mov    rsi,rdx
    46c1:	89 c7                	mov    edi,eax
    46c3:	e8 7c e4 ff ff       	call   2b44 <PrtSectHeader>
    46c8:	8b 45 f8             	mov    eax,DWORD PTR [rbp-0x8]
    46cb:	48 63 d0             	movsxd rdx,eax
    46ce:	48 8b 45 e8          	mov    rax,QWORD PTR [rbp-0x18]
    46d2:	48 89 d6             	mov    rsi,rdx
    46d5:	48 89 c7             	mov    rdi,rax
    46d8:	e8 d3 dd ff ff       	call   24b0 <xlog_hexdump>
    46dd:	b8 00 00 00 00       	mov    eax,0x0
    46e2:	c9                   	leave  
    46e3:	c3                   	ret    

00000000000046e4 <func_sect_bss>:
    46e4:	f3 0f 1e fa          	endbr64 
    46e8:	55                   	push   rbp
    46e9:	48 89 e5             	mov    rbp,rsp
    46ec:	48 83 ec 20          	sub    rsp,0x20
    46f0:	89 7d fc             	mov    DWORD PTR [rbp-0x4],edi
    46f3:	48 89 75 f0          	mov    QWORD PTR [rbp-0x10],rsi
    46f7:	48 89 55 e8          	mov    QWORD PTR [rbp-0x18],rdx
    46fb:	89 4d f8             	mov    DWORD PTR [rbp-0x8],ecx
    46fe:	4c 89 45 e0          	mov    QWORD PTR [rbp-0x20],r8
    4702:	ba 16 06 00 00       	mov    edx,0x616
    4707:	48 8d 35 0a 32 00 00 	lea    rsi,[rip+0x320a]        # 7918 <__func__.3100>
    470e:	48 8d 3d 23 26 00 00 	lea    rdi,[rip+0x2623]        # 6d38 <_IO_stdin_used+0xd38>
    4715:	b8 00 00 00 00       	mov    eax,0x0
    471a:	e8 4c e1 ff ff       	call   286b <xlog_info>
    471f:	48 8b 55 e0          	mov    rdx,QWORD PTR [rbp-0x20]
    4723:	8b 45 fc             	mov    eax,DWORD PTR [rbp-0x4]
    4726:	48 89 d6             	mov    rsi,rdx
    4729:	89 c7                	mov    edi,eax
    472b:	e8 14 e4 ff ff       	call   2b44 <PrtSectHeader>
    4730:	8b 45 f8             	mov    eax,DWORD PTR [rbp-0x8]
    4733:	48 63 d0             	movsxd rdx,eax
    4736:	48 8b 45 e8          	mov    rax,QWORD PTR [rbp-0x18]
    473a:	48 89 d6             	mov    rsi,rdx
    473d:	48 89 c7             	mov    rdi,rax
    4740:	e8 6b dd ff ff       	call   24b0 <xlog_hexdump>
    4745:	b8 00 00 00 00       	mov    eax,0x0
    474a:	c9                   	leave  
    474b:	c3                   	ret    

000000000000474c <func_sect_comment>:
    474c:	f3 0f 1e fa          	endbr64 
    4750:	55                   	push   rbp
    4751:	48 89 e5             	mov    rbp,rsp
    4754:	48 83 ec 20          	sub    rsp,0x20
    4758:	89 7d fc             	mov    DWORD PTR [rbp-0x4],edi
    475b:	48 89 75 f0          	mov    QWORD PTR [rbp-0x10],rsi
    475f:	48 89 55 e8          	mov    QWORD PTR [rbp-0x18],rdx
    4763:	89 4d f8             	mov    DWORD PTR [rbp-0x8],ecx
    4766:	4c 89 45 e0          	mov    QWORD PTR [rbp-0x20],r8
    476a:	ba 39 06 00 00       	mov    edx,0x639
    476f:	48 8d 35 ba 31 00 00 	lea    rsi,[rip+0x31ba]        # 7930 <__func__.3108>
    4776:	48 8d 3d bb 25 00 00 	lea    rdi,[rip+0x25bb]        # 6d38 <_IO_stdin_used+0xd38>
    477d:	b8 00 00 00 00       	mov    eax,0x0
    4782:	e8 e4 e0 ff ff       	call   286b <xlog_info>
    4787:	48 8b 55 e0          	mov    rdx,QWORD PTR [rbp-0x20]
    478b:	8b 45 fc             	mov    eax,DWORD PTR [rbp-0x4]
    478e:	48 89 d6             	mov    rsi,rdx
    4791:	89 c7                	mov    edi,eax
    4793:	e8 ac e3 ff ff       	call   2b44 <PrtSectHeader>
    4798:	8b 45 f8             	mov    eax,DWORD PTR [rbp-0x8]
    479b:	48 63 d0             	movsxd rdx,eax
    479e:	48 8b 45 e8          	mov    rax,QWORD PTR [rbp-0x18]
    47a2:	48 89 d6             	mov    rsi,rdx
    47a5:	48 89 c7             	mov    rdi,rax
    47a8:	e8 03 dd ff ff       	call   24b0 <xlog_hexdump>
    47ad:	b8 00 00 00 00       	mov    eax,0x0
    47b2:	c9                   	leave  
    47b3:	c3                   	ret    

00000000000047b4 <func_sect_debug_str>:
    47b4:	f3 0f 1e fa          	endbr64 
    47b8:	55                   	push   rbp
    47b9:	48 89 e5             	mov    rbp,rsp
    47bc:	48 83 ec 20          	sub    rsp,0x20
    47c0:	89 7d fc             	mov    DWORD PTR [rbp-0x4],edi
    47c3:	48 89 75 f0          	mov    QWORD PTR [rbp-0x10],rsi
    47c7:	48 89 55 e8          	mov    QWORD PTR [rbp-0x18],rdx
    47cb:	89 4d f8             	mov    DWORD PTR [rbp-0x8],ecx
    47ce:	4c 89 45 e0          	mov    QWORD PTR [rbp-0x20],r8
    47d2:	ba 62 06 00 00       	mov    edx,0x662
    47d7:	48 8d 35 72 31 00 00 	lea    rsi,[rip+0x3172]        # 7950 <__func__.3116>
    47de:	48 8d 3d 53 25 00 00 	lea    rdi,[rip+0x2553]        # 6d38 <_IO_stdin_used+0xd38>
    47e5:	b8 00 00 00 00       	mov    eax,0x0
    47ea:	e8 7c e0 ff ff       	call   286b <xlog_info>
    47ef:	48 8b 55 e0          	mov    rdx,QWORD PTR [rbp-0x20]
    47f3:	8b 45 fc             	mov    eax,DWORD PTR [rbp-0x4]
    47f6:	48 89 d6             	mov    rsi,rdx
    47f9:	89 c7                	mov    edi,eax
    47fb:	e8 44 e3 ff ff       	call   2b44 <PrtSectHeader>
    4800:	8b 45 f8             	mov    eax,DWORD PTR [rbp-0x8]
    4803:	48 63 d0             	movsxd rdx,eax
    4806:	48 8b 45 e8          	mov    rax,QWORD PTR [rbp-0x18]
    480a:	48 89 d6             	mov    rsi,rdx
    480d:	48 89 c7             	mov    rdi,rax
    4810:	e8 9b dc ff ff       	call   24b0 <xlog_hexdump>
    4815:	8b 4d f8             	mov    ecx,DWORD PTR [rbp-0x8]
    4818:	48 8b 45 e8          	mov    rax,QWORD PTR [rbp-0x18]
    481c:	ba f4 01 00 00       	mov    edx,0x1f4
    4821:	89 ce                	mov    esi,ecx
    4823:	48 89 c7             	mov    rdi,rax
    4826:	e8 34 f4 ff ff       	call   3c5f <DumpPtr2Str>
    482b:	b8 00 00 00 00       	mov    eax,0x0
    4830:	c9                   	leave  
    4831:	c3                   	ret    

0000000000004832 <func_sect_symtab>:
    4832:	f3 0f 1e fa          	endbr64 
    4836:	55                   	push   rbp
    4837:	48 89 e5             	mov    rbp,rsp
    483a:	48 83 ec 40          	sub    rsp,0x40
    483e:	89 7d dc             	mov    DWORD PTR [rbp-0x24],edi
    4841:	48 89 75 d0          	mov    QWORD PTR [rbp-0x30],rsi
    4845:	48 89 55 c8          	mov    QWORD PTR [rbp-0x38],rdx
    4849:	89 4d d8             	mov    DWORD PTR [rbp-0x28],ecx
    484c:	4c 89 45 c0          	mov    QWORD PTR [rbp-0x40],r8
    4850:	ba 6c 08 00 00       	mov    edx,0x86c
    4855:	48 8d 35 14 31 00 00 	lea    rsi,[rip+0x3114]        # 7970 <__func__.3124>
    485c:	48 8d 3d d5 24 00 00 	lea    rdi,[rip+0x24d5]        # 6d38 <_IO_stdin_used+0xd38>
    4863:	b8 00 00 00 00       	mov    eax,0x0
    4868:	e8 fe df ff ff       	call   286b <xlog_info>
    486d:	48 8b 55 c0          	mov    rdx,QWORD PTR [rbp-0x40]
    4871:	8b 45 dc             	mov    eax,DWORD PTR [rbp-0x24]
    4874:	48 89 d6             	mov    rsi,rdx
    4877:	89 c7                	mov    edi,eax
    4879:	e8 c6 e2 ff ff       	call   2b44 <PrtSectHeader>
    487e:	8b 45 d8             	mov    eax,DWORD PTR [rbp-0x28]
    4881:	48 63 d0             	movsxd rdx,eax
    4884:	48 8b 45 c8          	mov    rax,QWORD PTR [rbp-0x38]
    4888:	48 89 d6             	mov    rsi,rdx
    488b:	48 89 c7             	mov    rdi,rax
    488e:	e8 1d dc ff ff       	call   24b0 <xlog_hexdump>
    4893:	48 8b 45 c8          	mov    rax,QWORD PTR [rbp-0x38]
    4897:	48 89 45 e8          	mov    QWORD PTR [rbp-0x18],rax
    489b:	48 8b 45 c0          	mov    rax,QWORD PTR [rbp-0x40]
    489f:	48 8b 40 20          	mov    rax,QWORD PTR [rax+0x20]
    48a3:	48 83 c0 01          	add    rax,0x1
    48a7:	48 c1 e0 03          	shl    rax,0x3
    48ab:	48 89 c7             	mov    rdi,rax
    48ae:	e8 3d d9 ff ff       	call   21f0 <malloc@plt>
    48b3:	48 89 45 f0          	mov    QWORD PTR [rbp-0x10],rax
    48b7:	bf 0a 00 00 00       	mov    edi,0xa
    48bc:	e8 8f d8 ff ff       	call   2150 <putchar@plt>
    48c1:	48 8b 45 c0          	mov    rax,QWORD PTR [rbp-0x40]
    48c5:	48 8b 40 20          	mov    rax,QWORD PTR [rax+0x20]
    48c9:	48 8b 55 c0          	mov    rdx,QWORD PTR [rbp-0x40]
    48cd:	48 8b 4a 38          	mov    rcx,QWORD PTR [rdx+0x38]
    48d1:	ba 00 00 00 00       	mov    edx,0x0
    48d6:	48 f7 f1             	div    rcx
    48d9:	89 c6                	mov    esi,eax
    48db:	48 8d 3d 8e 28 00 00 	lea    rdi,[rip+0x288e]        # 7170 <_IO_stdin_used+0x1170>
    48e2:	b8 00 00 00 00       	mov    eax,0x0
    48e7:	e8 b4 d8 ff ff       	call   21a0 <printf@plt>
    48ec:	48 8d 3d ad 28 00 00 	lea    rdi,[rip+0x28ad]        # 71a0 <_IO_stdin_used+0x11a0>
    48f3:	e8 68 d8 ff ff       	call   2160 <puts@plt>
    48f8:	c7 45 e4 00 00 00 00 	mov    DWORD PTR [rbp-0x1c],0x0
    48ff:	e9 bf 00 00 00       	jmp    49c3 <func_sect_symtab+0x191>
    4904:	8b 45 e4             	mov    eax,DWORD PTR [rbp-0x1c]
    4907:	48 63 d0             	movsxd rdx,eax
    490a:	48 89 d0             	mov    rax,rdx
    490d:	48 01 c0             	add    rax,rax
    4910:	48 01 d0             	add    rax,rdx
    4913:	48 c1 e0 03          	shl    rax,0x3
    4917:	48 89 c2             	mov    rdx,rax
    491a:	48 8b 45 e8          	mov    rax,QWORD PTR [rbp-0x18]
    491e:	48 01 d0             	add    rax,rdx
    4921:	48 89 45 f8          	mov    QWORD PTR [rbp-0x8],rax
    4925:	48 8b 45 f8          	mov    rax,QWORD PTR [rbp-0x8]
    4929:	8b 38                	mov    edi,DWORD PTR [rax]
    492b:	48 8b 45 f8          	mov    rax,QWORD PTR [rbp-0x8]
    492f:	0f b7 40 06          	movzx  eax,WORD PTR [rax+0x6]
    4933:	0f b7 f0             	movzx  esi,ax
    4936:	48 8b 45 f8          	mov    rax,QWORD PTR [rbp-0x8]
    493a:	0f b6 40 05          	movzx  eax,BYTE PTR [rax+0x5]
    493e:	0f b6 c0             	movzx  eax,al
    4941:	83 e0 03             	and    eax,0x3
    4944:	41 89 c0             	mov    r8d,eax
    4947:	48 8b 45 f8          	mov    rax,QWORD PTR [rbp-0x8]
    494b:	0f b6 40 04          	movzx  eax,BYTE PTR [rax+0x4]
    494f:	c0 e8 04             	shr    al,0x4
    4952:	44 0f b6 d0          	movzx  r10d,al
    4956:	48 8b 45 f8          	mov    rax,QWORD PTR [rbp-0x8]
    495a:	0f b6 40 04          	movzx  eax,BYTE PTR [rax+0x4]
    495e:	0f b6 c0             	movzx  eax,al
    4961:	83 e0 0f             	and    eax,0xf
    4964:	41 89 c3             	mov    r11d,eax
    4967:	48 8b 45 f8          	mov    rax,QWORD PTR [rbp-0x8]
    496b:	48 8b 48 10          	mov    rcx,QWORD PTR [rax+0x10]
    496f:	48 8b 45 f8          	mov    rax,QWORD PTR [rbp-0x8]
    4973:	48 8b 50 08          	mov    rdx,QWORD PTR [rax+0x8]
    4977:	8b 45 e4             	mov    eax,DWORD PTR [rbp-0x1c]
    497a:	4c 8d 0d b1 28 00 00 	lea    r9,[rip+0x28b1]        # 7232 <_IO_stdin_used+0x1232>
    4981:	41 51                	push   r9
    4983:	57                   	push   rdi
    4984:	56                   	push   rsi
    4985:	41 50                	push   r8
    4987:	45 89 d1             	mov    r9d,r10d
    498a:	45 89 d8             	mov    r8d,r11d
    498d:	89 c6                	mov    esi,eax
    498f:	48 8d 3d 52 28 00 00 	lea    rdi,[rip+0x2852]        # 71e8 <_IO_stdin_used+0x11e8>
    4996:	b8 00 00 00 00       	mov    eax,0x0
    499b:	e8 00 d8 ff ff       	call   21a0 <printf@plt>
    49a0:	48 83 c4 20          	add    rsp,0x20
    49a4:	8b 45 e4             	mov    eax,DWORD PTR [rbp-0x1c]
    49a7:	48 98                	cdqe   
    49a9:	48 8d 14 c5 00 00 00 	lea    rdx,[rax*8+0x0]
    49b0:	00 
    49b1:	48 8b 45 f0          	mov    rax,QWORD PTR [rbp-0x10]
    49b5:	48 01 c2             	add    rdx,rax
    49b8:	48 8b 45 f8          	mov    rax,QWORD PTR [rbp-0x8]
    49bc:	48 89 02             	mov    QWORD PTR [rdx],rax
    49bf:	83 45 e4 01          	add    DWORD PTR [rbp-0x1c],0x1
    49c3:	8b 45 e4             	mov    eax,DWORD PTR [rbp-0x1c]
    49c6:	48 63 c8             	movsxd rcx,eax
    49c9:	48 8b 45 c0          	mov    rax,QWORD PTR [rbp-0x40]
    49cd:	48 8b 40 20          	mov    rax,QWORD PTR [rax+0x20]
    49d1:	48 8b 55 c0          	mov    rdx,QWORD PTR [rbp-0x40]
    49d5:	48 8b 72 38          	mov    rsi,QWORD PTR [rdx+0x38]
    49d9:	ba 00 00 00 00       	mov    edx,0x0
    49de:	48 f7 f6             	div    rsi
    49e1:	48 39 c1             	cmp    rcx,rax
    49e4:	0f 82 1a ff ff ff    	jb     4904 <func_sect_symtab+0xd2>
    49ea:	b8 00 00 00 00       	mov    eax,0x0
    49ef:	c9                   	leave  
    49f0:	c3                   	ret    

00000000000049f1 <func_sect_strtab>:
    49f1:	f3 0f 1e fa          	endbr64 
    49f5:	55                   	push   rbp
    49f6:	48 89 e5             	mov    rbp,rsp
    49f9:	48 83 ec 20          	sub    rsp,0x20
    49fd:	89 7d fc             	mov    DWORD PTR [rbp-0x4],edi
    4a00:	48 89 75 f0          	mov    QWORD PTR [rbp-0x10],rsi
    4a04:	48 89 55 e8          	mov    QWORD PTR [rbp-0x18],rdx
    4a08:	89 4d f8             	mov    DWORD PTR [rbp-0x8],ecx
    4a0b:	4c 89 45 e0          	mov    QWORD PTR [rbp-0x20],r8
    4a0f:	ba d2 08 00 00       	mov    edx,0x8d2
    4a14:	48 8d 35 75 2f 00 00 	lea    rsi,[rip+0x2f75]        # 7990 <__func__.3139>
    4a1b:	48 8d 3d 16 23 00 00 	lea    rdi,[rip+0x2316]        # 6d38 <_IO_stdin_used+0xd38>
    4a22:	b8 00 00 00 00       	mov    eax,0x0
    4a27:	e8 3f de ff ff       	call   286b <xlog_info>
    4a2c:	48 8b 55 e0          	mov    rdx,QWORD PTR [rbp-0x20]
    4a30:	8b 45 fc             	mov    eax,DWORD PTR [rbp-0x4]
    4a33:	48 89 d6             	mov    rsi,rdx
    4a36:	89 c7                	mov    edi,eax
    4a38:	e8 07 e1 ff ff       	call   2b44 <PrtSectHeader>
    4a3d:	8b 45 f8             	mov    eax,DWORD PTR [rbp-0x8]
    4a40:	48 63 d0             	movsxd rdx,eax
    4a43:	48 8b 45 e8          	mov    rax,QWORD PTR [rbp-0x18]
    4a47:	48 89 d6             	mov    rsi,rdx
    4a4a:	48 89 c7             	mov    rdi,rax
    4a4d:	e8 5e da ff ff       	call   24b0 <xlog_hexdump>
    4a52:	8b 4d f8             	mov    ecx,DWORD PTR [rbp-0x8]
    4a55:	48 8b 45 e8          	mov    rax,QWORD PTR [rbp-0x18]
    4a59:	ba f4 01 00 00       	mov    edx,0x1f4
    4a5e:	89 ce                	mov    esi,ecx
    4a60:	48 89 c7             	mov    rdi,rax
    4a63:	e8 f7 f1 ff ff       	call   3c5f <DumpPtr2Str>
    4a68:	b8 00 00 00 00       	mov    eax,0x0
    4a6d:	c9                   	leave  
    4a6e:	c3                   	ret    

0000000000004a6f <func_sect_shstrtab>:
    4a6f:	f3 0f 1e fa          	endbr64 
    4a73:	55                   	push   rbp
    4a74:	48 89 e5             	mov    rbp,rsp
    4a77:	48 83 ec 20          	sub    rsp,0x20
    4a7b:	89 7d fc             	mov    DWORD PTR [rbp-0x4],edi
    4a7e:	48 89 75 f0          	mov    QWORD PTR [rbp-0x10],rsi
    4a82:	48 89 55 e8          	mov    QWORD PTR [rbp-0x18],rdx
    4a86:	89 4d f8             	mov    DWORD PTR [rbp-0x8],ecx
    4a89:	4c 89 45 e0          	mov    QWORD PTR [rbp-0x20],r8
    4a8d:	ba 2a 09 00 00       	mov    edx,0x92a
    4a92:	48 8d 35 17 2f 00 00 	lea    rsi,[rip+0x2f17]        # 79b0 <__func__.3147>
    4a99:	48 8d 3d 98 22 00 00 	lea    rdi,[rip+0x2298]        # 6d38 <_IO_stdin_used+0xd38>
    4aa0:	b8 00 00 00 00       	mov    eax,0x0
    4aa5:	e8 c1 dd ff ff       	call   286b <xlog_info>
    4aaa:	48 8b 55 e0          	mov    rdx,QWORD PTR [rbp-0x20]
    4aae:	8b 45 fc             	mov    eax,DWORD PTR [rbp-0x4]
    4ab1:	48 89 d6             	mov    rsi,rdx
    4ab4:	89 c7                	mov    edi,eax
    4ab6:	e8 89 e0 ff ff       	call   2b44 <PrtSectHeader>
    4abb:	8b 45 f8             	mov    eax,DWORD PTR [rbp-0x8]
    4abe:	83 c0 20             	add    eax,0x20
    4ac1:	48 63 d0             	movsxd rdx,eax
    4ac4:	48 8b 45 e8          	mov    rax,QWORD PTR [rbp-0x18]
    4ac8:	48 89 d6             	mov    rsi,rdx
    4acb:	48 89 c7             	mov    rdi,rax
    4ace:	e8 dd d9 ff ff       	call   24b0 <xlog_hexdump>
    4ad3:	8b 4d f8             	mov    ecx,DWORD PTR [rbp-0x8]
    4ad6:	48 8b 45 e8          	mov    rax,QWORD PTR [rbp-0x18]
    4ada:	ba 64 00 00 00       	mov    edx,0x64
    4adf:	89 ce                	mov    esi,ecx
    4ae1:	48 89 c7             	mov    rdi,rax
    4ae4:	e8 76 f1 ff ff       	call   3c5f <DumpPtr2Str>
    4ae9:	b8 00 00 00 00       	mov    eax,0x0
    4aee:	c9                   	leave  
    4aef:	c3                   	ret    

0000000000004af0 <func_process>:
    4af0:	f3 0f 1e fa          	endbr64 
    4af4:	55                   	push   rbp
    4af5:	48 89 e5             	mov    rbp,rsp
    4af8:	48 83 ec 20          	sub    rsp,0x20
    4afc:	89 7d fc             	mov    DWORD PTR [rbp-0x4],edi
    4aff:	48 89 75 f0          	mov    QWORD PTR [rbp-0x10],rsi
    4b03:	48 89 55 e8          	mov    QWORD PTR [rbp-0x18],rdx
    4b07:	89 4d f8             	mov    DWORD PTR [rbp-0x8],ecx
    4b0a:	4c 89 45 e0          	mov    QWORD PTR [rbp-0x20],r8
    4b0e:	ba 8d 09 00 00       	mov    edx,0x98d
    4b13:	48 8d 35 ae 2e 00 00 	lea    rsi,[rip+0x2eae]        # 79c8 <__func__.3155>
    4b1a:	48 8d 3d 17 22 00 00 	lea    rdi,[rip+0x2217]        # 6d38 <_IO_stdin_used+0xd38>
    4b21:	b8 00 00 00 00       	mov    eax,0x0
    4b26:	e8 40 dd ff ff       	call   286b <xlog_info>
    4b2b:	48 8b 7d e0          	mov    rdi,QWORD PTR [rbp-0x20]
    4b2f:	8b 75 f8             	mov    esi,DWORD PTR [rbp-0x8]
    4b32:	48 8b 4d e8          	mov    rcx,QWORD PTR [rbp-0x18]
    4b36:	48 8b 55 f0          	mov    rdx,QWORD PTR [rbp-0x10]
    4b3a:	8b 45 fc             	mov    eax,DWORD PTR [rbp-0x4]
    4b3d:	49 89 f9             	mov    r9,rdi
    4b40:	41 89 f0             	mov    r8d,esi
    4b43:	89 c6                	mov    esi,eax
    4b45:	48 8d 3d f4 26 00 00 	lea    rdi,[rip+0x26f4]        # 7240 <_IO_stdin_used+0x1240>
    4b4c:	b8 00 00 00 00       	mov    eax,0x0
    4b51:	e8 15 dd ff ff       	call   286b <xlog_info>
    4b56:	48 8d 3d b3 14 00 00 	lea    rdi,[rip+0x14b3]        # 6010 <_IO_stdin_used+0x10>
    4b5d:	b8 00 00 00 00       	mov    eax,0x0
    4b62:	e8 04 dd ff ff       	call   286b <xlog_info>
    4b67:	b8 00 00 00 00       	mov    eax,0x0
    4b6c:	c9                   	leave  
    4b6d:	c3                   	ret    

0000000000004b6e <parse_elf64_sect_body>:
    4b6e:	f3 0f 1e fa          	endbr64 
    4b72:	55                   	push   rbp
    4b73:	48 89 e5             	mov    rbp,rsp
    4b76:	48 83 ec 40          	sub    rsp,0x40
    4b7a:	89 7d dc             	mov    DWORD PTR [rbp-0x24],edi
    4b7d:	48 89 75 d0          	mov    QWORD PTR [rbp-0x30],rsi
    4b81:	48 89 55 c8          	mov    QWORD PTR [rbp-0x38],rdx
    4b85:	89 4d d8             	mov    DWORD PTR [rbp-0x28],ecx
    4b88:	4c 89 45 c0          	mov    QWORD PTR [rbp-0x40],r8
    4b8c:	48 8b 75 c8          	mov    rsi,QWORD PTR [rbp-0x38]
    4b90:	48 8b 4d d0          	mov    rcx,QWORD PTR [rbp-0x30]
    4b94:	8b 45 dc             	mov    eax,DWORD PTR [rbp-0x24]
    4b97:	48 83 ec 08          	sub    rsp,0x8
    4b9b:	8b 55 d8             	mov    edx,DWORD PTR [rbp-0x28]
    4b9e:	52                   	push   rdx
    4b9f:	49 89 f1             	mov    r9,rsi
    4ba2:	49 89 c8             	mov    r8,rcx
    4ba5:	89 c1                	mov    ecx,eax
    4ba7:	ba 97 09 00 00       	mov    edx,0x997
    4bac:	48 8d 35 2d 2e 00 00 	lea    rsi,[rip+0x2e2d]        # 79e0 <__func__.3163>
    4bb3:	48 8d 3d ce 26 00 00 	lea    rdi,[rip+0x26ce]        # 7288 <_IO_stdin_used+0x1288>
    4bba:	b8 00 00 00 00       	mov    eax,0x0
    4bbf:	e8 a7 dc ff ff       	call   286b <xlog_info>
    4bc4:	48 83 c4 10          	add    rsp,0x10
    4bc8:	48 8b 45 d0          	mov    rax,QWORD PTR [rbp-0x30]
    4bcc:	48 89 45 f8          	mov    QWORD PTR [rbp-0x8],rax
    4bd0:	48 8d 05 19 ff ff ff 	lea    rax,[rip+0xffffffffffffff19]        # 4af0 <func_process>
    4bd7:	48 89 45 f0          	mov    QWORD PTR [rbp-0x10],rax
    4bdb:	c7 45 ec 00 00 00 00 	mov    DWORD PTR [rbp-0x14],0x0
    4be2:	eb 6f                	jmp    4c53 <parse_elf64_sect_body+0xe5>
    4be4:	48 83 7d f8 00       	cmp    QWORD PTR [rbp-0x8],0x0
    4be9:	74 63                	je     4c4e <parse_elf64_sect_body+0xe0>
    4beb:	8b 45 ec             	mov    eax,DWORD PTR [rbp-0x14]
    4bee:	48 98                	cdqe   
    4bf0:	48 c1 e0 04          	shl    rax,0x4
    4bf4:	48 89 c2             	mov    rdx,rax
    4bf7:	48 8d 05 22 54 00 00 	lea    rax,[rip+0x5422]        # a020 <sect_funcs>
    4bfe:	48 8b 04 02          	mov    rax,QWORD PTR [rdx+rax*1]
    4c02:	48 85 c0             	test   rax,rax
    4c05:	74 47                	je     4c4e <parse_elf64_sect_body+0xe0>
    4c07:	8b 45 ec             	mov    eax,DWORD PTR [rbp-0x14]
    4c0a:	48 98                	cdqe   
    4c0c:	48 c1 e0 04          	shl    rax,0x4
    4c10:	48 89 c2             	mov    rdx,rax
    4c13:	48 8d 05 06 54 00 00 	lea    rax,[rip+0x5406]        # a020 <sect_funcs>
    4c1a:	48 8b 14 02          	mov    rdx,QWORD PTR [rdx+rax*1]
    4c1e:	48 8b 45 f8          	mov    rax,QWORD PTR [rbp-0x8]
    4c22:	48 89 d6             	mov    rsi,rdx
    4c25:	48 89 c7             	mov    rdi,rax
    4c28:	e8 a3 d5 ff ff       	call   21d0 <strcmp@plt>
    4c2d:	85 c0                	test   eax,eax
    4c2f:	75 1e                	jne    4c4f <parse_elf64_sect_body+0xe1>
    4c31:	8b 45 ec             	mov    eax,DWORD PTR [rbp-0x14]
    4c34:	48 98                	cdqe   
    4c36:	48 c1 e0 04          	shl    rax,0x4
    4c3a:	48 89 c2             	mov    rdx,rax
    4c3d:	48 8d 05 e4 53 00 00 	lea    rax,[rip+0x53e4]        # a028 <sect_funcs+0x8>
    4c44:	48 8b 04 02          	mov    rax,QWORD PTR [rdx+rax*1]
    4c48:	48 89 45 f0          	mov    QWORD PTR [rbp-0x10],rax
    4c4c:	eb 0d                	jmp    4c5b <parse_elf64_sect_body+0xed>
    4c4e:	90                   	nop
    4c4f:	83 45 ec 01          	add    DWORD PTR [rbp-0x14],0x1
    4c53:	8b 45 ec             	mov    eax,DWORD PTR [rbp-0x14]
    4c56:	83 f8 25             	cmp    eax,0x25
    4c59:	76 89                	jbe    4be4 <parse_elf64_sect_body+0x76>
    4c5b:	48 8b 7d c0          	mov    rdi,QWORD PTR [rbp-0x40]
    4c5f:	8b 4d d8             	mov    ecx,DWORD PTR [rbp-0x28]
    4c62:	48 8b 55 c8          	mov    rdx,QWORD PTR [rbp-0x38]
    4c66:	48 8b 75 f8          	mov    rsi,QWORD PTR [rbp-0x8]
    4c6a:	8b 45 dc             	mov    eax,DWORD PTR [rbp-0x24]
    4c6d:	4c 8b 4d f0          	mov    r9,QWORD PTR [rbp-0x10]
    4c71:	49 89 f8             	mov    r8,rdi
    4c74:	89 c7                	mov    edi,eax
    4c76:	41 ff d1             	call   r9
    4c79:	48 8d 3d 90 13 00 00 	lea    rdi,[rip+0x1390]        # 6010 <_IO_stdin_used+0x10>
    4c80:	b8 00 00 00 00       	mov    eax,0x0
    4c85:	e8 e1 db ff ff       	call   286b <xlog_info>
    4c8a:	90                   	nop
    4c8b:	c9                   	leave  
    4c8c:	c3                   	ret    

0000000000004c8d <parse_elf64_sect_bodys>:
    4c8d:	f3 0f 1e fa          	endbr64 
    4c91:	55                   	push   rbp
    4c92:	48 89 e5             	mov    rbp,rsp
    4c95:	48 83 ec 30          	sub    rsp,0x30
    4c99:	48 89 7d e8          	mov    QWORD PTR [rbp-0x18],rdi
    4c9d:	48 89 75 e0          	mov    QWORD PTR [rbp-0x20],rsi
    4ca1:	48 89 55 d8          	mov    QWORD PTR [rbp-0x28],rdx
    4ca5:	48 89 4d d0          	mov    QWORD PTR [rbp-0x30],rcx
    4ca9:	ba b8 09 00 00       	mov    edx,0x9b8
    4cae:	48 8d 35 4b 2d 00 00 	lea    rsi,[rip+0x2d4b]        # 7a00 <__func__.3182>
    4cb5:	48 8d 3d 74 1c 00 00 	lea    rdi,[rip+0x1c74]        # 6930 <_IO_stdin_used+0x930>
    4cbc:	b8 00 00 00 00       	mov    eax,0x0
    4cc1:	e8 a5 db ff ff       	call   286b <xlog_info>
    4cc6:	c7 45 fc 00 00 00 00 	mov    DWORD PTR [rbp-0x4],0x0
    4ccd:	e9 8b 00 00 00       	jmp    4d5d <parse_elf64_sect_bodys+0xd0>
    4cd2:	8b 45 fc             	mov    eax,DWORD PTR [rbp-0x4]
    4cd5:	48 98                	cdqe   
    4cd7:	48 8d 14 c5 00 00 00 	lea    rdx,[rax*8+0x0]
    4cde:	00 
    4cdf:	48 8b 45 e0          	mov    rax,QWORD PTR [rbp-0x20]
    4ce3:	48 01 d0             	add    rax,rdx
    4ce6:	48 8b 08             	mov    rcx,QWORD PTR [rax]
    4ce9:	8b 45 fc             	mov    eax,DWORD PTR [rbp-0x4]
    4cec:	48 98                	cdqe   
    4cee:	48 8d 14 c5 00 00 00 	lea    rdx,[rax*8+0x0]
    4cf5:	00 
    4cf6:	48 8b 45 e0          	mov    rax,QWORD PTR [rbp-0x20]
    4cfa:	48 01 d0             	add    rax,rdx
    4cfd:	48 8b 00             	mov    rax,QWORD PTR [rax]
    4d00:	48 8b 40 20          	mov    rax,QWORD PTR [rax+0x20]
    4d04:	89 c7                	mov    edi,eax
    4d06:	8b 45 fc             	mov    eax,DWORD PTR [rbp-0x4]
    4d09:	48 98                	cdqe   
    4d0b:	48 8d 14 c5 00 00 00 	lea    rdx,[rax*8+0x0]
    4d12:	00 
    4d13:	48 8b 45 e0          	mov    rax,QWORD PTR [rbp-0x20]
    4d17:	48 01 d0             	add    rax,rdx
    4d1a:	48 8b 00             	mov    rax,QWORD PTR [rax]
    4d1d:	48 8b 50 18          	mov    rdx,QWORD PTR [rax+0x18]
    4d21:	48 8b 45 d0          	mov    rax,QWORD PTR [rbp-0x30]
    4d25:	48 01 c2             	add    rdx,rax
    4d28:	8b 45 fc             	mov    eax,DWORD PTR [rbp-0x4]
    4d2b:	48 98                	cdqe   
    4d2d:	48 8d 34 c5 00 00 00 	lea    rsi,[rax*8+0x0]
    4d34:	00 
    4d35:	48 8b 45 e0          	mov    rax,QWORD PTR [rbp-0x20]
    4d39:	48 01 f0             	add    rax,rsi
    4d3c:	48 8b 00             	mov    rax,QWORD PTR [rax]
    4d3f:	8b 00                	mov    eax,DWORD PTR [rax]
    4d41:	89 c6                	mov    esi,eax
    4d43:	48 8b 45 d8          	mov    rax,QWORD PTR [rbp-0x28]
    4d47:	48 01 c6             	add    rsi,rax
    4d4a:	8b 45 fc             	mov    eax,DWORD PTR [rbp-0x4]
    4d4d:	49 89 c8             	mov    r8,rcx
    4d50:	89 f9                	mov    ecx,edi
    4d52:	89 c7                	mov    edi,eax
    4d54:	e8 15 fe ff ff       	call   4b6e <parse_elf64_sect_body>
    4d59:	83 45 fc 01          	add    DWORD PTR [rbp-0x4],0x1
    4d5d:	48 8b 45 e8          	mov    rax,QWORD PTR [rbp-0x18]
    4d61:	0f b7 40 3c          	movzx  eax,WORD PTR [rax+0x3c]
    4d65:	0f b7 c0             	movzx  eax,ax
    4d68:	39 45 fc             	cmp    DWORD PTR [rbp-0x4],eax
    4d6b:	0f 8c 61 ff ff ff    	jl     4cd2 <parse_elf64_sect_bodys+0x45>
    4d71:	90                   	nop
    4d72:	c9                   	leave  
    4d73:	c3                   	ret    

0000000000004d74 <build_elf64_obj>:
    4d74:	f3 0f 1e fa          	endbr64 
    4d78:	55                   	push   rbp
    4d79:	48 89 e5             	mov    rbp,rsp
    4d7c:	53                   	push   rbx
    4d7d:	48 83 ec 58          	sub    rsp,0x58
    4d81:	48 89 7d a8          	mov    QWORD PTR [rbp-0x58],rdi
    4d85:	48 89 75 a0          	mov    QWORD PTR [rbp-0x60],rsi
    4d89:	48 8b 55 a0          	mov    rdx,QWORD PTR [rbp-0x60]
    4d8d:	48 8b 45 a8          	mov    rax,QWORD PTR [rbp-0x58]
    4d91:	48 89 c6             	mov    rsi,rax
    4d94:	48 8d 3d 4d 25 00 00 	lea    rdi,[rip+0x254d]        # 72e8 <_IO_stdin_used+0x12e8>
    4d9b:	b8 00 00 00 00       	mov    eax,0x0
    4da0:	e8 c6 da ff ff       	call   286b <xlog_info>
    4da5:	c7 45 c4 e8 0f 00 00 	mov    DWORD PTR [rbp-0x3c],0xfe8
    4dac:	8b 45 c4             	mov    eax,DWORD PTR [rbp-0x3c]
    4daf:	c1 e8 02             	shr    eax,0x2
    4db2:	83 c0 06             	add    eax,0x6
    4db5:	89 c0                	mov    eax,eax
    4db7:	be 04 00 00 00       	mov    esi,0x4
    4dbc:	48 89 c7             	mov    rdi,rax
    4dbf:	e8 fc d3 ff ff       	call   21c0 <calloc@plt>
    4dc4:	48 89 45 c8          	mov    QWORD PTR [rbp-0x38],rax
    4dc8:	48 8b 45 c8          	mov    rax,QWORD PTR [rbp-0x38]
    4dcc:	48 8b 55 a8          	mov    rdx,QWORD PTR [rbp-0x58]
    4dd0:	48 89 10             	mov    QWORD PTR [rax],rdx
    4dd3:	48 8b 45 a8          	mov    rax,QWORD PTR [rbp-0x58]
    4dd7:	48 89 c7             	mov    rdi,rax
    4dda:	e8 1c e0 ff ff       	call   2dfb <parse_elf64_elf_header>
    4ddf:	48 8b 55 c8          	mov    rdx,QWORD PTR [rbp-0x38]
    4de3:	48 89 42 08          	mov    QWORD PTR [rdx+0x8],rax
    4de7:	48 8b 45 c8          	mov    rax,QWORD PTR [rbp-0x38]
    4deb:	48 8b 50 08          	mov    rdx,QWORD PTR [rax+0x8]
    4def:	48 8b 45 c8          	mov    rax,QWORD PTR [rbp-0x38]
    4df3:	48 8b 0a             	mov    rcx,QWORD PTR [rdx]
    4df6:	48 8b 5a 08          	mov    rbx,QWORD PTR [rdx+0x8]
    4dfa:	48 89 48 10          	mov    QWORD PTR [rax+0x10],rcx
    4dfe:	48 89 58 18          	mov    QWORD PTR [rax+0x18],rbx
    4e02:	48 8b 4a 10          	mov    rcx,QWORD PTR [rdx+0x10]
    4e06:	48 8b 5a 18          	mov    rbx,QWORD PTR [rdx+0x18]
    4e0a:	48 89 48 20          	mov    QWORD PTR [rax+0x20],rcx
    4e0e:	48 89 58 28          	mov    QWORD PTR [rax+0x28],rbx
    4e12:	48 8b 4a 20          	mov    rcx,QWORD PTR [rdx+0x20]
    4e16:	48 8b 5a 28          	mov    rbx,QWORD PTR [rdx+0x28]
    4e1a:	48 89 48 30          	mov    QWORD PTR [rax+0x30],rcx
    4e1e:	48 89 58 38          	mov    QWORD PTR [rax+0x38],rbx
    4e22:	48 8b 4a 30          	mov    rcx,QWORD PTR [rdx+0x30]
    4e26:	48 8b 5a 38          	mov    rbx,QWORD PTR [rdx+0x38]
    4e2a:	48 89 48 40          	mov    QWORD PTR [rax+0x40],rcx
    4e2e:	48 89 58 48          	mov    QWORD PTR [rax+0x48],rbx
    4e32:	48 8b 45 c8          	mov    rax,QWORD PTR [rbp-0x38]
    4e36:	48 8b 40 08          	mov    rax,QWORD PTR [rax+0x8]
    4e3a:	48 89 45 d0          	mov    QWORD PTR [rbp-0x30],rax
    4e3e:	48 8b 45 a8          	mov    rax,QWORD PTR [rbp-0x58]
    4e42:	48 89 45 d8          	mov    QWORD PTR [rbp-0x28],rax
    4e46:	48 8b 45 d0          	mov    rax,QWORD PTR [rbp-0x30]
    4e4a:	48 8b 50 28          	mov    rdx,QWORD PTR [rax+0x28]
    4e4e:	48 8b 45 d0          	mov    rax,QWORD PTR [rbp-0x30]
    4e52:	0f b7 40 3a          	movzx  eax,WORD PTR [rax+0x3a]
    4e56:	0f b7 c8             	movzx  ecx,ax
    4e59:	48 8b 45 d0          	mov    rax,QWORD PTR [rbp-0x30]
    4e5d:	0f b7 40 3e          	movzx  eax,WORD PTR [rax+0x3e]
    4e61:	0f b7 c0             	movzx  eax,ax
    4e64:	0f af c1             	imul   eax,ecx
    4e67:	48 98                	cdqe   
    4e69:	48 01 c2             	add    rdx,rax
    4e6c:	48 8b 45 d8          	mov    rax,QWORD PTR [rbp-0x28]
    4e70:	48 01 d0             	add    rax,rdx
    4e73:	48 89 45 e0          	mov    QWORD PTR [rbp-0x20],rax
    4e77:	48 8b 45 d0          	mov    rax,QWORD PTR [rbp-0x30]
    4e7b:	0f b7 40 3e          	movzx  eax,WORD PTR [rax+0x3e]
    4e7f:	0f b7 c0             	movzx  eax,ax
    4e82:	48 8b 55 e0          	mov    rdx,QWORD PTR [rbp-0x20]
    4e86:	48 89 d6             	mov    rsi,rdx
    4e89:	89 c7                	mov    edi,eax
    4e8b:	e8 b4 dc ff ff       	call   2b44 <PrtSectHeader>
    4e90:	48 8b 45 e0          	mov    rax,QWORD PTR [rbp-0x20]
    4e94:	48 8b 50 18          	mov    rdx,QWORD PTR [rax+0x18]
    4e98:	48 8b 45 d8          	mov    rax,QWORD PTR [rbp-0x28]
    4e9c:	48 01 d0             	add    rax,rdx
    4e9f:	48 89 45 e8          	mov    QWORD PTR [rbp-0x18],rax
    4ea3:	48 8b 45 e0          	mov    rax,QWORD PTR [rbp-0x20]
    4ea7:	48 8b 50 20          	mov    rdx,QWORD PTR [rax+0x20]
    4eab:	48 8b 45 e8          	mov    rax,QWORD PTR [rbp-0x18]
    4eaf:	48 89 d6             	mov    rsi,rdx
    4eb2:	48 89 c7             	mov    rdi,rax
    4eb5:	e8 f6 d5 ff ff       	call   24b0 <xlog_hexdump>
    4eba:	48 8b 45 d0          	mov    rax,QWORD PTR [rbp-0x30]
    4ebe:	48 8b 50 28          	mov    rdx,QWORD PTR [rax+0x28]
    4ec2:	48 8b 45 d8          	mov    rax,QWORD PTR [rbp-0x28]
    4ec6:	48 8d 0c 02          	lea    rcx,[rdx+rax*1]
    4eca:	48 8b 55 e8          	mov    rdx,QWORD PTR [rbp-0x18]
    4ece:	48 8b 45 d0          	mov    rax,QWORD PTR [rbp-0x30]
    4ed2:	48 89 ce             	mov    rsi,rcx
    4ed5:	48 89 c7             	mov    rdi,rax
    4ed8:	e8 cc e1 ff ff       	call   30a9 <parse_elf64_sect_headers>
    4edd:	48 8b 55 c8          	mov    rdx,QWORD PTR [rbp-0x38]
    4ee1:	48 89 42 50          	mov    QWORD PTR [rdx+0x50],rax
    4ee5:	c7 45 bc 00 00 00 00 	mov    DWORD PTR [rbp-0x44],0x0
    4eec:	eb 70                	jmp    4f5e <build_elf64_obj+0x1ea>
    4eee:	48 8b 45 c8          	mov    rax,QWORD PTR [rbp-0x38]
    4ef2:	48 8b 40 50          	mov    rax,QWORD PTR [rax+0x50]
    4ef6:	8b 55 bc             	mov    edx,DWORD PTR [rbp-0x44]
    4ef9:	48 63 d2             	movsxd rdx,edx
    4efc:	48 c1 e2 03          	shl    rdx,0x3
    4f00:	48 01 d0             	add    rax,rdx
    4f03:	48 8b 00             	mov    rax,QWORD PTR [rax]
    4f06:	48 8b 55 c8          	mov    rdx,QWORD PTR [rbp-0x38]
    4f0a:	8b 4d bc             	mov    ecx,DWORD PTR [rbp-0x44]
    4f0d:	48 63 c9             	movsxd rcx,ecx
    4f10:	48 c1 e1 06          	shl    rcx,0x6
    4f14:	48 01 ca             	add    rdx,rcx
    4f17:	48 83 c2 50          	add    rdx,0x50
    4f1b:	48 8b 08             	mov    rcx,QWORD PTR [rax]
    4f1e:	48 8b 58 08          	mov    rbx,QWORD PTR [rax+0x8]
    4f22:	48 89 4a 08          	mov    QWORD PTR [rdx+0x8],rcx
    4f26:	48 89 5a 10          	mov    QWORD PTR [rdx+0x10],rbx
    4f2a:	48 8b 48 10          	mov    rcx,QWORD PTR [rax+0x10]
    4f2e:	48 8b 58 18          	mov    rbx,QWORD PTR [rax+0x18]
    4f32:	48 89 4a 18          	mov    QWORD PTR [rdx+0x18],rcx
    4f36:	48 89 5a 20          	mov    QWORD PTR [rdx+0x20],rbx
    4f3a:	48 8b 48 20          	mov    rcx,QWORD PTR [rax+0x20]
    4f3e:	48 8b 58 28          	mov    rbx,QWORD PTR [rax+0x28]
    4f42:	48 89 4a 28          	mov    QWORD PTR [rdx+0x28],rcx
    4f46:	48 89 5a 30          	mov    QWORD PTR [rdx+0x30],rbx
    4f4a:	48 8b 48 30          	mov    rcx,QWORD PTR [rax+0x30]
    4f4e:	48 8b 58 38          	mov    rbx,QWORD PTR [rax+0x38]
    4f52:	48 89 4a 38          	mov    QWORD PTR [rdx+0x38],rcx
    4f56:	48 89 5a 40          	mov    QWORD PTR [rdx+0x40],rbx
    4f5a:	83 45 bc 01          	add    DWORD PTR [rbp-0x44],0x1
    4f5e:	48 8b 45 c8          	mov    rax,QWORD PTR [rbp-0x38]
    4f62:	48 8b 40 08          	mov    rax,QWORD PTR [rax+0x8]
    4f66:	0f b7 40 3c          	movzx  eax,WORD PTR [rax+0x3c]
    4f6a:	0f b7 c0             	movzx  eax,ax
    4f6d:	39 45 bc             	cmp    DWORD PTR [rbp-0x44],eax
    4f70:	0f 8c 78 ff ff ff    	jl     4eee <build_elf64_obj+0x17a>
    4f76:	48 8b 45 d0          	mov    rax,QWORD PTR [rbp-0x30]
    4f7a:	48 8b 50 20          	mov    rdx,QWORD PTR [rax+0x20]
    4f7e:	48 8b 45 d8          	mov    rax,QWORD PTR [rbp-0x28]
    4f82:	48 8d 0c 02          	lea    rcx,[rdx+rax*1]
    4f86:	48 8b 55 e8          	mov    rdx,QWORD PTR [rbp-0x18]
    4f8a:	48 8b 45 d0          	mov    rax,QWORD PTR [rbp-0x30]
    4f8e:	48 89 ce             	mov    rsi,rcx
    4f91:	48 89 c7             	mov    rdi,rax
    4f94:	e8 20 e4 ff ff       	call   33b9 <parse_elf64_prog_headers>
    4f99:	48 8b 55 c8          	mov    rdx,QWORD PTR [rbp-0x38]
    4f9d:	48 89 82 58 0c 00 00 	mov    QWORD PTR [rdx+0xc58],rax
    4fa4:	c7 45 c0 00 00 00 00 	mov    DWORD PTR [rbp-0x40],0x0
    4fab:	eb 76                	jmp    5023 <build_elf64_obj+0x2af>
    4fad:	48 8b 45 c8          	mov    rax,QWORD PTR [rbp-0x38]
    4fb1:	48 8b 80 58 0c 00 00 	mov    rax,QWORD PTR [rax+0xc58]
    4fb8:	8b 55 c0             	mov    edx,DWORD PTR [rbp-0x40]
    4fbb:	48 63 d2             	movsxd rdx,edx
    4fbe:	48 c1 e2 03          	shl    rdx,0x3
    4fc2:	48 01 d0             	add    rax,rdx
    4fc5:	48 8b 10             	mov    rdx,QWORD PTR [rax]
    4fc8:	48 8b 75 c8          	mov    rsi,QWORD PTR [rbp-0x38]
    4fcc:	8b 45 c0             	mov    eax,DWORD PTR [rbp-0x40]
    4fcf:	48 63 c8             	movsxd rcx,eax
    4fd2:	48 89 c8             	mov    rax,rcx
    4fd5:	48 c1 e0 03          	shl    rax,0x3
    4fd9:	48 29 c8             	sub    rax,rcx
    4fdc:	48 c1 e0 03          	shl    rax,0x3
    4fe0:	48 01 f0             	add    rax,rsi
    4fe3:	48 05 60 0c 00 00    	add    rax,0xc60
    4fe9:	48 8b 0a             	mov    rcx,QWORD PTR [rdx]
    4fec:	48 8b 5a 08          	mov    rbx,QWORD PTR [rdx+0x8]
    4ff0:	48 89 08             	mov    QWORD PTR [rax],rcx
    4ff3:	48 89 58 08          	mov    QWORD PTR [rax+0x8],rbx
    4ff7:	48 8b 4a 10          	mov    rcx,QWORD PTR [rdx+0x10]
    4ffb:	48 8b 5a 18          	mov    rbx,QWORD PTR [rdx+0x18]
    4fff:	48 89 48 10          	mov    QWORD PTR [rax+0x10],rcx
    5003:	48 89 58 18          	mov    QWORD PTR [rax+0x18],rbx
    5007:	48 8b 4a 20          	mov    rcx,QWORD PTR [rdx+0x20]
    500b:	48 8b 5a 28          	mov    rbx,QWORD PTR [rdx+0x28]
    500f:	48 89 48 20          	mov    QWORD PTR [rax+0x20],rcx
    5013:	48 89 58 28          	mov    QWORD PTR [rax+0x28],rbx
    5017:	48 8b 52 30          	mov    rdx,QWORD PTR [rdx+0x30]
    501b:	48 89 50 30          	mov    QWORD PTR [rax+0x30],rdx
    501f:	83 45 c0 01          	add    DWORD PTR [rbp-0x40],0x1
    5023:	48 8b 45 d0          	mov    rax,QWORD PTR [rbp-0x30]
    5027:	0f b7 40 38          	movzx  eax,WORD PTR [rax+0x38]
    502b:	0f b7 c0             	movzx  eax,ax
    502e:	39 45 c0             	cmp    DWORD PTR [rbp-0x40],eax
    5031:	0f 8c 76 ff ff ff    	jl     4fad <build_elf64_obj+0x239>
    5037:	48 8b 45 c8          	mov    rax,QWORD PTR [rbp-0x38]
    503b:	48 8b 70 50          	mov    rsi,QWORD PTR [rax+0x50]
    503f:	48 8b 45 c8          	mov    rax,QWORD PTR [rbp-0x38]
    5043:	48 8b 40 08          	mov    rax,QWORD PTR [rax+0x8]
    5047:	48 8b 4d d8          	mov    rcx,QWORD PTR [rbp-0x28]
    504b:	48 8b 55 e8          	mov    rdx,QWORD PTR [rbp-0x18]
    504f:	48 89 c7             	mov    rdi,rax
    5052:	e8 36 fc ff ff       	call   4c8d <parse_elf64_sect_bodys>
    5057:	48 8d 3d af 22 00 00 	lea    rdi,[rip+0x22af]        # 730d <_IO_stdin_used+0x130d>
    505e:	b8 00 00 00 00       	mov    eax,0x0
    5063:	e8 03 d8 ff ff       	call   286b <xlog_info>
    5068:	48 8b 45 c8          	mov    rax,QWORD PTR [rbp-0x38]
    506c:	48 83 c4 58          	add    rsp,0x58
    5070:	5b                   	pop    rbx
    5071:	5d                   	pop    rbp
    5072:	c3                   	ret    

0000000000005073 <before_main_func>:
    5073:	f3 0f 1e fa          	endbr64 
    5077:	55                   	push   rbp
    5078:	48 89 e5             	mov    rbp,rsp
    507b:	48 8d 3d ae 22 00 00 	lea    rdi,[rip+0x22ae]        # 7330 <_IO_stdin_used+0x1330>
    5082:	b8 00 00 00 00       	mov    eax,0x0
    5087:	e8 df d7 ff ff       	call   286b <xlog_info>
    508c:	48 8d 3d 0e 23 00 00 	lea    rdi,[rip+0x230e]        # 73a1 <_IO_stdin_used+0x13a1>
    5093:	b8 00 00 00 00       	mov    eax,0x0
    5098:	e8 ce d7 ff ff       	call   286b <xlog_info>
    509d:	48 8d 0d ac 18 00 00 	lea    rcx,[rip+0x18ac]        # 6950 <_IO_stdin_used+0x950>
    50a4:	ba 03 0a 00 00       	mov    edx,0xa03
    50a9:	48 8d 35 70 29 00 00 	lea    rsi,[rip+0x2970]        # 7a20 <__func__.3208>
    50b0:	48 8d 3d 09 23 00 00 	lea    rdi,[rip+0x2309]        # 73c0 <_IO_stdin_used+0x13c0>
    50b7:	b8 00 00 00 00       	mov    eax,0x0
    50bc:	e8 aa d7 ff ff       	call   286b <xlog_info>
    50c1:	90                   	nop
    50c2:	5d                   	pop    rbp
    50c3:	c3                   	ret    

00000000000050c4 <after_main_func>:
    50c4:	f3 0f 1e fa          	endbr64 
    50c8:	55                   	push   rbp
    50c9:	48 89 e5             	mov    rbp,rsp
    50cc:	48 8d 0d 7d 18 00 00 	lea    rcx,[rip+0x187d]        # 6950 <_IO_stdin_used+0x950>
    50d3:	ba 09 0a 00 00       	mov    edx,0xa09
    50d8:	48 8d 35 61 29 00 00 	lea    rsi,[rip+0x2961]        # 7a40 <__func__.3212>
    50df:	48 8d 3d da 22 00 00 	lea    rdi,[rip+0x22da]        # 73c0 <_IO_stdin_used+0x13c0>
    50e6:	b8 00 00 00 00       	mov    eax,0x0
    50eb:	e8 7b d7 ff ff       	call   286b <xlog_info>
    50f0:	48 8d 3d ee 22 00 00 	lea    rdi,[rip+0x22ee]        # 73e5 <_IO_stdin_used+0x13e5>
    50f7:	b8 00 00 00 00       	mov    eax,0x0
    50fc:	e8 6a d7 ff ff       	call   286b <xlog_info>
    5101:	90                   	nop
    5102:	5d                   	pop    rbp
    5103:	c3                   	ret    

0000000000005104 <my_init01>:
    5104:	f3 0f 1e fa          	endbr64 
    5108:	55                   	push   rbp
    5109:	48 89 e5             	mov    rbp,rsp
    510c:	48 8d 3d 8e 22 00 00 	lea    rdi,[rip+0x228e]        # 73a1 <_IO_stdin_used+0x13a1>
    5113:	b8 00 00 00 00       	mov    eax,0x0
    5118:	e8 4e d7 ff ff       	call   286b <xlog_info>
    511d:	48 8d 0d 2c 18 00 00 	lea    rcx,[rip+0x182c]        # 6950 <_IO_stdin_used+0x950>
    5124:	ba 18 0a 00 00       	mov    edx,0xa18
    5129:	48 8d 35 20 29 00 00 	lea    rsi,[rip+0x2920]        # 7a50 <__func__.3228>
    5130:	48 8d 3d 89 22 00 00 	lea    rdi,[rip+0x2289]        # 73c0 <_IO_stdin_used+0x13c0>
    5137:	b8 00 00 00 00       	mov    eax,0x0
    513c:	e8 2a d7 ff ff       	call   286b <xlog_info>
    5141:	90                   	nop
    5142:	5d                   	pop    rbp
    5143:	c3                   	ret    

0000000000005144 <my_fini01>:
    5144:	f3 0f 1e fa          	endbr64 
    5148:	55                   	push   rbp
    5149:	48 89 e5             	mov    rbp,rsp
    514c:	48 8d 0d fd 17 00 00 	lea    rcx,[rip+0x17fd]        # 6950 <_IO_stdin_used+0x950>
    5153:	ba 1d 0a 00 00       	mov    edx,0xa1d
    5158:	48 8d 35 01 29 00 00 	lea    rsi,[rip+0x2901]        # 7a60 <__func__.3232>
    515f:	48 8d 3d 5a 22 00 00 	lea    rdi,[rip+0x225a]        # 73c0 <_IO_stdin_used+0x13c0>
    5166:	b8 00 00 00 00       	mov    eax,0x0
    516b:	e8 fb d6 ff ff       	call   286b <xlog_info>
    5170:	48 8d 3d 6e 22 00 00 	lea    rdi,[rip+0x226e]        # 73e5 <_IO_stdin_used+0x13e5>
    5177:	b8 00 00 00 00       	mov    eax,0x0
    517c:	e8 ea d6 ff ff       	call   286b <xlog_info>
    5181:	90                   	nop
    5182:	5d                   	pop    rbp
    5183:	c3                   	ret    

0000000000005184 <my_init02>:
    5184:	f3 0f 1e fa          	endbr64 
    5188:	55                   	push   rbp
    5189:	48 89 e5             	mov    rbp,rsp
    518c:	48 8d 3d 0e 22 00 00 	lea    rdi,[rip+0x220e]        # 73a1 <_IO_stdin_used+0x13a1>
    5193:	b8 00 00 00 00       	mov    eax,0x0
    5198:	e8 ce d6 ff ff       	call   286b <xlog_info>
    519d:	48 8d 0d ac 17 00 00 	lea    rcx,[rip+0x17ac]        # 6950 <_IO_stdin_used+0x950>
    51a4:	ba 24 0a 00 00       	mov    edx,0xa24
    51a9:	48 8d 35 c0 28 00 00 	lea    rsi,[rip+0x28c0]        # 7a70 <__func__.3236>
    51b0:	48 8d 3d 09 22 00 00 	lea    rdi,[rip+0x2209]        # 73c0 <_IO_stdin_used+0x13c0>
    51b7:	b8 00 00 00 00       	mov    eax,0x0
    51bc:	e8 aa d6 ff ff       	call   286b <xlog_info>
    51c1:	90                   	nop
    51c2:	5d                   	pop    rbp
    51c3:	c3                   	ret    

00000000000051c4 <my_fini02>:
    51c4:	f3 0f 1e fa          	endbr64 
    51c8:	55                   	push   rbp
    51c9:	48 89 e5             	mov    rbp,rsp
    51cc:	48 8d 0d 7d 17 00 00 	lea    rcx,[rip+0x177d]        # 6950 <_IO_stdin_used+0x950>
    51d3:	ba 29 0a 00 00       	mov    edx,0xa29
    51d8:	48 8d 35 a1 28 00 00 	lea    rsi,[rip+0x28a1]        # 7a80 <__func__.3240>
    51df:	48 8d 3d da 21 00 00 	lea    rdi,[rip+0x21da]        # 73c0 <_IO_stdin_used+0x13c0>
    51e6:	b8 00 00 00 00       	mov    eax,0x0
    51eb:	e8 7b d6 ff ff       	call   286b <xlog_info>
    51f0:	48 8d 3d ee 21 00 00 	lea    rdi,[rip+0x21ee]        # 73e5 <_IO_stdin_used+0x13e5>
    51f7:	b8 00 00 00 00       	mov    eax,0x0
    51fc:	e8 6a d6 ff ff       	call   286b <xlog_info>
    5201:	90                   	nop
    5202:	5d                   	pop    rbp
    5203:	c3                   	ret    

0000000000005204 <my_init03>:
    5204:	f3 0f 1e fa          	endbr64 
    5208:	55                   	push   rbp
    5209:	48 89 e5             	mov    rbp,rsp
    520c:	48 8d 3d 8e 21 00 00 	lea    rdi,[rip+0x218e]        # 73a1 <_IO_stdin_used+0x13a1>
    5213:	b8 00 00 00 00       	mov    eax,0x0
    5218:	e8 4e d6 ff ff       	call   286b <xlog_info>
    521d:	48 8d 0d 2c 17 00 00 	lea    rcx,[rip+0x172c]        # 6950 <_IO_stdin_used+0x950>
    5224:	ba 30 0a 00 00       	mov    edx,0xa30
    5229:	48 8d 35 60 28 00 00 	lea    rsi,[rip+0x2860]        # 7a90 <__func__.3244>
    5230:	48 8d 3d 89 21 00 00 	lea    rdi,[rip+0x2189]        # 73c0 <_IO_stdin_used+0x13c0>
    5237:	b8 00 00 00 00       	mov    eax,0x0
    523c:	e8 2a d6 ff ff       	call   286b <xlog_info>
    5241:	90                   	nop
    5242:	5d                   	pop    rbp
    5243:	c3                   	ret    

0000000000005244 <my_fini03>:
    5244:	f3 0f 1e fa          	endbr64 
    5248:	55                   	push   rbp
    5249:	48 89 e5             	mov    rbp,rsp
    524c:	48 8d 0d fd 16 00 00 	lea    rcx,[rip+0x16fd]        # 6950 <_IO_stdin_used+0x950>
    5253:	ba 35 0a 00 00       	mov    edx,0xa35
    5258:	48 8d 35 41 28 00 00 	lea    rsi,[rip+0x2841]        # 7aa0 <__func__.3248>
    525f:	48 8d 3d 5a 21 00 00 	lea    rdi,[rip+0x215a]        # 73c0 <_IO_stdin_used+0x13c0>
    5266:	b8 00 00 00 00       	mov    eax,0x0
    526b:	e8 fb d5 ff ff       	call   286b <xlog_info>
    5270:	48 8d 3d 6e 21 00 00 	lea    rdi,[rip+0x216e]        # 73e5 <_IO_stdin_used+0x13e5>
    5277:	b8 00 00 00 00       	mov    eax,0x0
    527c:	e8 ea d5 ff ff       	call   286b <xlog_info>
    5281:	90                   	nop
    5282:	5d                   	pop    rbp
    5283:	c3                   	ret    

0000000000005284 <parse_args>:
    5284:	f3 0f 1e fa          	endbr64 
    5288:	55                   	push   rbp
    5289:	48 89 e5             	mov    rbp,rsp
    528c:	48 83 ec 20          	sub    rsp,0x20
    5290:	89 7d ec             	mov    DWORD PTR [rbp-0x14],edi
    5293:	48 89 75 e0          	mov    QWORD PTR [rbp-0x20],rsi
    5297:	48 8b 55 e0          	mov    rdx,QWORD PTR [rbp-0x20]
    529b:	8b 45 ec             	mov    eax,DWORD PTR [rbp-0x14]
    529e:	41 b9 3e 0a 00 00    	mov    r9d,0xa3e
    52a4:	4c 8d 05 a5 16 00 00 	lea    r8,[rip+0x16a5]        # 6950 <_IO_stdin_used+0x950>
    52ab:	48 89 d1             	mov    rcx,rdx
    52ae:	89 c2                	mov    edx,eax
    52b0:	48 8d 35 f9 27 00 00 	lea    rsi,[rip+0x27f9]        # 7ab0 <__func__.3253>
    52b7:	48 8d 3d 42 21 00 00 	lea    rdi,[rip+0x2142]        # 7400 <_IO_stdin_used+0x1400>
    52be:	b8 00 00 00 00       	mov    eax,0x0
    52c3:	e8 a3 d5 ff ff       	call   286b <xlog_info>
    52c8:	48 8d 3d 41 0d 00 00 	lea    rdi,[rip+0xd41]        # 6010 <_IO_stdin_used+0x10>
    52cf:	b8 00 00 00 00       	mov    eax,0x0
    52d4:	e8 92 d5 ff ff       	call   286b <xlog_info>
    52d9:	c7 45 fc 00 00 00 00 	mov    DWORD PTR [rbp-0x4],0x0
    52e0:	eb 48                	jmp    532a <parse_args+0xa6>
    52e2:	8b 45 fc             	mov    eax,DWORD PTR [rbp-0x4]
    52e5:	48 98                	cdqe   
    52e7:	48 8d 14 c5 00 00 00 	lea    rdx,[rax*8+0x0]
    52ee:	00 
    52ef:	48 8b 45 e0          	mov    rax,QWORD PTR [rbp-0x20]
    52f3:	48 01 d0             	add    rax,rdx
    52f6:	48 8b 08             	mov    rcx,QWORD PTR [rax]
    52f9:	8b 45 fc             	mov    eax,DWORD PTR [rbp-0x4]
    52fc:	48 98                	cdqe   
    52fe:	48 8d 14 c5 00 00 00 	lea    rdx,[rax*8+0x0]
    5305:	00 
    5306:	48 8b 45 e0          	mov    rax,QWORD PTR [rbp-0x20]
    530a:	48 01 d0             	add    rax,rdx
    530d:	48 8b 10             	mov    rdx,QWORD PTR [rax]
    5310:	8b 45 fc             	mov    eax,DWORD PTR [rbp-0x4]
    5313:	89 c6                	mov    esi,eax
    5315:	48 8d 3d 1c 21 00 00 	lea    rdi,[rip+0x211c]        # 7438 <_IO_stdin_used+0x1438>
    531c:	b8 00 00 00 00       	mov    eax,0x0
    5321:	e8 45 d5 ff ff       	call   286b <xlog_info>
    5326:	83 45 fc 01          	add    DWORD PTR [rbp-0x4],0x1
    532a:	8b 45 fc             	mov    eax,DWORD PTR [rbp-0x4]
    532d:	3b 45 ec             	cmp    eax,DWORD PTR [rbp-0x14]
    5330:	7c b0                	jl     52e2 <parse_args+0x5e>
    5332:	48 8d 3d d7 0c 00 00 	lea    rdi,[rip+0xcd7]        # 6010 <_IO_stdin_used+0x10>
    5339:	b8 00 00 00 00       	mov    eax,0x0
    533e:	e8 28 d5 ff ff       	call   286b <xlog_info>
    5343:	ba 45 0a 00 00       	mov    edx,0xa45
    5348:	48 8d 35 61 27 00 00 	lea    rsi,[rip+0x2761]        # 7ab0 <__func__.3253>
    534f:	48 8d 3d 0a 21 00 00 	lea    rdi,[rip+0x210a]        # 7460 <_IO_stdin_used+0x1460>
    5356:	b8 00 00 00 00       	mov    eax,0x0
    535b:	e8 0b d5 ff ff       	call   286b <xlog_info>
    5360:	b8 00 00 00 00       	mov    eax,0x0
    5365:	c9                   	leave  
    5366:	c3                   	ret    

0000000000005367 <main>:
    5367:	f3 0f 1e fa          	endbr64 
    536b:	55                   	push   rbp
    536c:	48 89 e5             	mov    rbp,rsp
    536f:	48 83 ec 40          	sub    rsp,0x40
    5373:	89 7d cc             	mov    DWORD PTR [rbp-0x34],edi
    5376:	48 89 75 c0          	mov    QWORD PTR [rbp-0x40],rsi
    537a:	64 48 8b 04 25 28 00 	mov    rax,QWORD PTR fs:0x28
    5381:	00 00 
    5383:	48 89 45 f8          	mov    QWORD PTR [rbp-0x8],rax
    5387:	31 c0                	xor    eax,eax
    5389:	b8 00 00 00 00       	mov    eax,0x0
    538e:	e8 96 cf ff ff       	call   2329 <xlog_init>
    5393:	48 8d 3d f6 20 00 00 	lea    rdi,[rip+0x20f6]        # 7490 <_IO_stdin_used+0x1490>
    539a:	b8 00 00 00 00       	mov    eax,0x0
    539f:	e8 c7 d4 ff ff       	call   286b <xlog_info>
    53a4:	48 8b 45 c0          	mov    rax,QWORD PTR [rbp-0x40]
    53a8:	be 5b 00 00 00       	mov    esi,0x5b
    53ad:	48 89 c7             	mov    rdi,rax
    53b0:	e8 fb d0 ff ff       	call   24b0 <xlog_hexdump>
    53b5:	48 8b 45 c0          	mov    rax,QWORD PTR [rbp-0x40]
    53b9:	48 8b 00             	mov    rax,QWORD PTR [rax]
    53bc:	be 5b 00 00 00       	mov    esi,0x5b
    53c1:	48 89 c7             	mov    rdi,rax
    53c4:	e8 e7 d0 ff ff       	call   24b0 <xlog_hexdump>
    53c9:	48 8b 55 c0          	mov    rdx,QWORD PTR [rbp-0x40]
    53cd:	8b 45 cc             	mov    eax,DWORD PTR [rbp-0x34]
    53d0:	48 89 d6             	mov    rsi,rdx
    53d3:	89 c7                	mov    edi,eax
    53d5:	e8 aa fe ff ff       	call   5284 <parse_args>
    53da:	48 8b 45 c0          	mov    rax,QWORD PTR [rbp-0x40]
    53de:	48 8b 00             	mov    rax,QWORD PTR [rax]
    53e1:	48 89 45 e0          	mov    QWORD PTR [rbp-0x20],rax
    53e5:	48 c7 45 d8 00 00 00 	mov    QWORD PTR [rbp-0x28],0x0
    53ec:	00 
    53ed:	48 8d 55 d8          	lea    rdx,[rbp-0x28]
    53f1:	48 8b 45 e0          	mov    rax,QWORD PTR [rbp-0x20]
    53f5:	48 89 d6             	mov    rsi,rdx
    53f8:	48 89 c7             	mov    rdi,rax
    53fb:	e8 99 d5 ff ff       	call   2999 <get_elf64_data>
    5400:	48 89 45 e8          	mov    QWORD PTR [rbp-0x18],rax
    5404:	48 83 7d e8 00       	cmp    QWORD PTR [rbp-0x18],0x0
    5409:	74 09                	je     5414 <main+0xad>
    540b:	48 8b 45 d8          	mov    rax,QWORD PTR [rbp-0x28]
    540f:	48 85 c0             	test   rax,rax
    5412:	75 1a                	jne    542e <main+0xc7>
    5414:	48 8b 45 e0          	mov    rax,QWORD PTR [rbp-0x20]
    5418:	48 89 c6             	mov    rsi,rax
    541b:	48 8d 3d 8e 20 00 00 	lea    rdi,[rip+0x208e]        # 74b0 <_IO_stdin_used+0x14b0>
    5422:	b8 00 00 00 00       	mov    eax,0x0
    5427:	e8 3f d4 ff ff       	call   286b <xlog_info>
    542c:	eb 63                	jmp    5491 <main+0x12a>
    542e:	48 8b 45 e8          	mov    rax,QWORD PTR [rbp-0x18]
    5432:	be 55 00 00 00       	mov    esi,0x55
    5437:	48 89 c7             	mov    rdi,rax
    543a:	e8 71 d0 ff ff       	call   24b0 <xlog_hexdump>
    543f:	48 8b 55 d8          	mov    rdx,QWORD PTR [rbp-0x28]
    5443:	48 8b 45 e8          	mov    rax,QWORD PTR [rbp-0x18]
    5447:	48 89 d6             	mov    rsi,rdx
    544a:	48 89 c7             	mov    rdi,rax
    544d:	e8 22 f9 ff ff       	call   4d74 <build_elf64_obj>
    5452:	48 89 45 f0          	mov    QWORD PTR [rbp-0x10],rax
    5456:	48 8b 45 f0          	mov    rax,QWORD PTR [rbp-0x10]
    545a:	48 8b 40 50          	mov    rax,QWORD PTR [rax+0x50]
    545e:	48 89 c7             	mov    rdi,rax
    5461:	e8 da cc ff ff       	call   2140 <free@plt>
    5466:	48 8b 45 f0          	mov    rax,QWORD PTR [rbp-0x10]
    546a:	48 8b 80 58 0c 00 00 	mov    rax,QWORD PTR [rax+0xc58]
    5471:	48 89 c7             	mov    rdi,rax
    5474:	e8 c7 cc ff ff       	call   2140 <free@plt>
    5479:	48 8b 45 f0          	mov    rax,QWORD PTR [rbp-0x10]
    547d:	48 89 c7             	mov    rdi,rax
    5480:	e8 bb cc ff ff       	call   2140 <free@plt>
    5485:	48 8b 45 e8          	mov    rax,QWORD PTR [rbp-0x18]
    5489:	48 89 c7             	mov    rdi,rax
    548c:	e8 af cc ff ff       	call   2140 <free@plt>
    5491:	48 8d 3d 47 20 00 00 	lea    rdi,[rip+0x2047]        # 74df <_IO_stdin_used+0x14df>
    5498:	b8 00 00 00 00       	mov    eax,0x0
    549d:	e8 c9 d3 ff ff       	call   286b <xlog_info>
    54a2:	b8 00 00 00 00       	mov    eax,0x0
    54a7:	e8 88 ce ff ff       	call   2334 <xlog_uninit>
    54ac:	b8 00 00 00 00       	mov    eax,0x0
    54b1:	48 8b 4d f8          	mov    rcx,QWORD PTR [rbp-0x8]
    54b5:	64 48 33 0c 25 28 00 	xor    rcx,QWORD PTR fs:0x28
    54bc:	00 00 
    54be:	74 05                	je     54c5 <main+0x15e>
    54c0:	e8 cb cc ff ff       	call   2190 <__stack_chk_fail@plt>
    54c5:	c9                   	leave  
    54c6:	c3                   	ret    
    54c7:	66 0f 1f 84 00 00 00 	nop    WORD PTR [rax+rax*1+0x0]
    54ce:	00 00 

00000000000054d0 <__libc_csu_init>:
    54d0:	f3 0f 1e fa          	endbr64 
    54d4:	41 57                	push   r15
    54d6:	4c 8d 3d 23 48 00 00 	lea    r15,[rip+0x4823]        # 9d00 <__frame_dummy_init_array_entry>
    54dd:	41 56                	push   r14
    54df:	49 89 d6             	mov    r14,rdx
    54e2:	41 55                	push   r13
    54e4:	49 89 f5             	mov    r13,rsi
    54e7:	41 54                	push   r12
    54e9:	41 89 fc             	mov    r12d,edi
    54ec:	55                   	push   rbp
    54ed:	48 8d 2d 34 48 00 00 	lea    rbp,[rip+0x4834]        # 9d28 <__do_global_dtors_aux_fini_array_entry>
    54f4:	53                   	push   rbx
    54f5:	4c 29 fd             	sub    rbp,r15
    54f8:	48 83 ec 08          	sub    rsp,0x8
    54fc:	e8 ff ca ff ff       	call   2000 <_init>
    5501:	48 c1 fd 03          	sar    rbp,0x3
    5505:	74 1f                	je     5526 <__libc_csu_init+0x56>
    5507:	31 db                	xor    ebx,ebx
    5509:	0f 1f 80 00 00 00 00 	nop    DWORD PTR [rax+0x0]
    5510:	4c 89 f2             	mov    rdx,r14
    5513:	4c 89 ee             	mov    rsi,r13
    5516:	44 89 e7             	mov    edi,r12d
    5519:	41 ff 14 df          	call   QWORD PTR [r15+rbx*8]
    551d:	48 83 c3 01          	add    rbx,0x1
    5521:	48 39 dd             	cmp    rbp,rbx
    5524:	75 ea                	jne    5510 <__libc_csu_init+0x40>
    5526:	48 83 c4 08          	add    rsp,0x8
    552a:	5b                   	pop    rbx
    552b:	5d                   	pop    rbp
    552c:	41 5c                	pop    r12
    552e:	41 5d                	pop    r13
    5530:	41 5e                	pop    r14
    5532:	41 5f                	pop    r15
    5534:	c3                   	ret    
    5535:	66 66 2e 0f 1f 84 00 	data16 nop WORD PTR cs:[rax+rax*1+0x0]
    553c:	00 00 00 00 

0000000000005540 <__libc_csu_fini>:
    5540:	f3 0f 1e fa          	endbr64 
    5544:	c3                   	ret    
    5545:	66 2e 0f 1f 84 00 00 	nop    WORD PTR cs:[rax+rax*1+0x0]
    554c:	00 00 00 
    554f:	90                   	nop

0000000000005550 <__stat>:
    5550:	f3 0f 1e fa          	endbr64 
    5554:	48 89 f2             	mov    rdx,rsi
    5557:	48 89 fe             	mov    rsi,rdi
    555a:	bf 01 00 00 00       	mov    edi,0x1
    555f:	e9 7c cc ff ff       	jmp    21e0 <__xstat@plt>

Disassembly of section .fini:

0000000000005564 <_fini>:
    5564:	f3 0f 1e fa          	endbr64 
    5568:	48 83 ec 08          	sub    rsp,0x8
    556c:	48 83 c4 08          	add    rsp,0x8
    5570:	c3                   	ret    
